
streaming_reconstruct.elf:     file format elf32-littlenios2
streaming_reconstruct.elf
architecture: nios2:r1, flags 0x00000112:
EXEC_P, HAS_SYMS, D_PAGED
start address 0x00040244

Program Header:
    LOAD off    0x00001000 vaddr 0x00040000 paddr 0x00040000 align 2**12
         filesz 0x00000020 memsz 0x00000020 flags r-x
    LOAD off    0x00001020 vaddr 0x00040020 paddr 0x00040020 align 2**12
         filesz 0x00015ea8 memsz 0x00015ea8 flags r-x
    LOAD off    0x00016ec8 vaddr 0x00055ec8 paddr 0x00057a04 align 2**12
         filesz 0x00001b3c memsz 0x00001b3c flags rw-
    LOAD off    0x00019540 vaddr 0x00059540 paddr 0x00059540 align 2**12
         filesz 0x00000000 memsz 0x00000164 flags rw-

Sections:
Idx Name          Size      VMA       LMA       File off  Algn
  0 .entry        00000020  00040000  00040000  00001000  2**5
                  CONTENTS, ALLOC, LOAD, READONLY, CODE
  1 .exceptions   00000224  00040020  00040020  00001020  2**2
                  CONTENTS, ALLOC, LOAD, READONLY, CODE
  2 .text         00015894  00040244  00040244  00001244  2**2
                  CONTENTS, ALLOC, LOAD, READONLY, CODE
  3 .rodata       000003f0  00055ad8  00055ad8  00016ad8  2**2
                  CONTENTS, ALLOC, LOAD, READONLY, DATA
  4 .rwdata       00001b3c  00055ec8  00057a04  00016ec8  2**2
                  CONTENTS, ALLOC, LOAD, DATA, SMALL_DATA
  5 .bss          00000164  00059540  00059540  00019540  2**2
                  ALLOC, SMALL_DATA
  6 .onchip_memory2 00000000  000596a4  000596a4  00018a04  2**0
                  CONTENTS
  7 .comment      00000023  00000000  00000000  00018a04  2**0
                  CONTENTS, READONLY
  8 .debug_aranges 00001218  00000000  00000000  00018a28  2**3
                  CONTENTS, READONLY, DEBUGGING
  9 .debug_info   00029785  00000000  00000000  00019c40  2**0
                  CONTENTS, READONLY, DEBUGGING
 10 .debug_abbrev 0000b000  00000000  00000000  000433c5  2**0
                  CONTENTS, READONLY, DEBUGGING
 11 .debug_line   0000de01  00000000  00000000  0004e3c5  2**0
                  CONTENTS, READONLY, DEBUGGING
 12 .debug_frame  00002f34  00000000  00000000  0005c1c8  2**2
                  CONTENTS, READONLY, DEBUGGING
 13 .debug_str    00004d75  00000000  00000000  0005f0fc  2**0
                  CONTENTS, READONLY, DEBUGGING
 14 .debug_loc    0001be79  00000000  00000000  00063e71  2**0
                  CONTENTS, READONLY, DEBUGGING
 15 .debug_alt_sim_info 00000060  00000000  00000000  0007fcec  2**2
                  CONTENTS, READONLY, DEBUGGING
 16 .debug_ranges 00001fa0  00000000  00000000  0007fd50  2**3
                  CONTENTS, READONLY, DEBUGGING
 17 .thread_model 00000003  00000000  00000000  00085d4a  2**0
                  CONTENTS, READONLY
 18 .cpu          0000000a  00000000  00000000  00085d4d  2**0
                  CONTENTS, READONLY
 19 .qsys         00000001  00000000  00000000  00085d57  2**0
                  CONTENTS, READONLY
 20 .simulation_enabled 00000001  00000000  00000000  00085d58  2**0
                  CONTENTS, READONLY
 21 .sysid_hash   00000004  00000000  00000000  00085d59  2**0
                  CONTENTS, READONLY
 22 .sysid_base   00000004  00000000  00000000  00085d5d  2**0
                  CONTENTS, READONLY
 23 .sysid_time   00000004  00000000  00000000  00085d61  2**0
                  CONTENTS, READONLY
 24 .stderr_dev   00000009  00000000  00000000  00085d65  2**0
                  CONTENTS, READONLY
 25 .stdin_dev    00000009  00000000  00000000  00085d6e  2**0
                  CONTENTS, READONLY
 26 .stdout_dev   00000009  00000000  00000000  00085d77  2**0
                  CONTENTS, READONLY
 27 .sopc_system_name 0000000e  00000000  00000000  00085d80  2**0
                  CONTENTS, READONLY
 28 .quartus_project_dir 00000022  00000000  00000000  00085d8e  2**0
                  CONTENTS, READONLY
 29 .jdi          00005b59  00000000  00000000  00085db0  2**0
                  CONTENTS, READONLY
 30 .sopcinfo     000690e3  00000000  00000000  0008b909  2**0
                  CONTENTS, READONLY
SYMBOL TABLE:
00040000 l    d  .entry	00000000 .entry
00040020 l    d  .exceptions	00000000 .exceptions
00040244 l    d  .text	00000000 .text
00055ad8 l    d  .rodata	00000000 .rodata
00055ec8 l    d  .rwdata	00000000 .rwdata
00059540 l    d  .bss	00000000 .bss
000596a4 l    d  .onchip_memory2	00000000 .onchip_memory2
00000000 l    d  .comment	00000000 .comment
00000000 l    d  .debug_aranges	00000000 .debug_aranges
00000000 l    d  .debug_info	00000000 .debug_info
00000000 l    d  .debug_abbrev	00000000 .debug_abbrev
00000000 l    d  .debug_line	00000000 .debug_line
00000000 l    d  .debug_frame	00000000 .debug_frame
00000000 l    d  .debug_str	00000000 .debug_str
00000000 l    d  .debug_loc	00000000 .debug_loc
00000000 l    d  .debug_alt_sim_info	00000000 .debug_alt_sim_info
00000000 l    d  .debug_ranges	00000000 .debug_ranges
00000000 l    df *ABS*	00000000 ../streaming_reconstruct_bsp//obj/HAL/src/crt0.o
0004028c l       .text	00000000 alt_after_alt_main
00000000 l    df *ABS*	00000000 alt_irq_handler.c
00000000 l    df *ABS*	00000000 alt_instruction_exception_entry.c
00000000 l    df *ABS*	00000000 hello_world.c
00000000 l    df *ABS*	00000000 s_ceil.c
00000000 l    df *ABS*	00000000 s_round.c
00000000 l    df *ABS*	00000000 sf_round.c
00000000 l    df *ABS*	00000000 w_fmod.c
00000000 l    df *ABS*	00000000 w_log.c
00000000 l    df *ABS*	00000000 e_fmod.c
00055b90 l     O .rodata	00000010 Zero
00000000 l    df *ABS*	00000000 e_log.c
00000000 l    df *ABS*	00000000 s_fpclassify.c
00000000 l    df *ABS*	00000000 s_lib_ver.c
00000000 l    df *ABS*	00000000 s_matherr.c
00000000 l    df *ABS*	00000000 s_nan.c
00000000 l    df *ABS*	00000000 libgcc2.c
00000000 l    df *ABS*	00000000 lib2-divmod.c
00000000 l    df *ABS*	00000000 addsf3.c
00000000 l    df *ABS*	00000000 divsf3.c
00000000 l    df *ABS*	00000000 gesf2.c
00000000 l    df *ABS*	00000000 lesf2.c
00000000 l    df *ABS*	00000000 mulsf3.c
00000000 l    df *ABS*	00000000 subsf3.c
00000000 l    df *ABS*	00000000 fixsfsi.c
00000000 l    df *ABS*	00000000 floatsisf.c
00000000 l    df *ABS*	00000000 adddf3.c
00000000 l    df *ABS*	00000000 divdf3.c
00000000 l    df *ABS*	00000000 eqdf2.c
00000000 l    df *ABS*	00000000 gedf2.c
00000000 l    df *ABS*	00000000 muldf3.c
00000000 l    df *ABS*	00000000 subdf3.c
00000000 l    df *ABS*	00000000 fixdfsi.c
00000000 l    df *ABS*	00000000 floatsidf.c
00000000 l    df *ABS*	00000000 extendsfdf2.c
00000000 l    df *ABS*	00000000 truncdfsf2.c
00000000 l    df *ABS*	00000000 libgcc2.c
00000000 l    df *ABS*	00000000 libgcc2.c
00000000 l    df *ABS*	00000000 errno.c
00000000 l    df *ABS*	00000000 impure.c
00055ec8 l     O .rwdata	00000424 impure_data
00000000 l    df *ABS*	00000000 printf.c
00000000 l    df *ABS*	00000000 puts.c
00000000 l    df *ABS*	00000000 strlen.c
00000000 l    df *ABS*	00000000 vfprintf.c
00055cea l     O .rodata	00000010 zeroes.4404
000493b4 l     F .text	000000bc __sbprintf
00055cfa l     O .rodata	00000010 blanks.4403
00000000 l    df *ABS*	00000000 wsetup.c
00000000 l    df *ABS*	00000000 dtoa.c
000495c4 l     F .text	00000200 quorem
00000000 l    df *ABS*	00000000 fflush.c
00000000 l    df *ABS*	00000000 findfp.c
0004b0f4 l     F .text	00000008 __fp_unlock
0004b108 l     F .text	0000019c __sinit.part.1
0004b2a4 l     F .text	00000008 __fp_lock
00000000 l    df *ABS*	00000000 mallocr.c
00000000 l    df *ABS*	00000000 fvwrite.c
00000000 l    df *ABS*	00000000 fwalk.c
00000000 l    df *ABS*	00000000 locale.c
0005630c l     O .rwdata	00000020 lc_ctype_charset
000562ec l     O .rwdata	00000020 lc_message_charset
0005632c l     O .rwdata	00000038 lconv
00000000 l    df *ABS*	00000000 makebuf.c
00000000 l    df *ABS*	00000000 mallocr.c
00000000 l    df *ABS*	00000000 memchr.c
00000000 l    df *ABS*	00000000 memcpy.c
00000000 l    df *ABS*	00000000 memmove.c
00000000 l    df *ABS*	00000000 memset.c
00000000 l    df *ABS*	00000000 mprec.c
00055d28 l     O .rodata	0000000c p05.2768
00000000 l    df *ABS*	00000000 mallocr.c
00000000 l    df *ABS*	00000000 sbrkr.c
00000000 l    df *ABS*	00000000 stdio.c
00000000 l    df *ABS*	00000000 strcmp.c
00000000 l    df *ABS*	00000000 vfprintf.c
0004e62c l     F .text	000000fc __sprint_r.part.0
00055e5c l     O .rodata	00000010 blanks.4348
00055e4c l     O .rodata	00000010 zeroes.4349
0004fbb8 l     F .text	000000bc __sbprintf
00000000 l    df *ABS*	00000000 writer.c
00000000 l    df *ABS*	00000000 closer.c
00000000 l    df *ABS*	00000000 mallocr.c
00000000 l    df *ABS*	00000000 fclose.c
00000000 l    df *ABS*	00000000 fputwc.c
00000000 l    df *ABS*	00000000 fstatr.c
00000000 l    df *ABS*	00000000 int_errno.c
00000000 l    df *ABS*	00000000 isattyr.c
00000000 l    df *ABS*	00000000 lseekr.c
00000000 l    df *ABS*	00000000 readr.c
00000000 l    df *ABS*	00000000 wbuf.c
00000000 l    df *ABS*	00000000 wcrtomb.c
00000000 l    df *ABS*	00000000 wctomb_r.c
00000000 l    df *ABS*	00000000 libgcc2.c
00000000 l    df *ABS*	00000000 libgcc2.c
00000000 l    df *ABS*	00000000 ledf2.c
00000000 l    df *ABS*	00000000 floatunsidf.c
00000000 l    df *ABS*	00000000 alt_close.c
000511f4 l     F .text	0000003c alt_get_errno
00000000 l    df *ABS*	00000000 alt_dev.c
00051300 l     F .text	0000002c alt_dev_null_write
00000000 l    df *ABS*	00000000 alt_errno.c
00000000 l    df *ABS*	00000000 alt_fstat.c
0005132c l     F .text	0000003c alt_get_errno
00000000 l    df *ABS*	00000000 alt_isatty.c
00051418 l     F .text	0000003c alt_get_errno
00000000 l    df *ABS*	00000000 alt_load.c
000514f8 l     F .text	00000068 alt_load_section
00000000 l    df *ABS*	00000000 alt_lseek.c
000515e4 l     F .text	0000003c alt_get_errno
00000000 l    df *ABS*	00000000 alt_main.c
00000000 l    df *ABS*	00000000 alt_malloc_lock.c
00000000 l    df *ABS*	00000000 alt_read.c
000517b8 l     F .text	0000003c alt_get_errno
00000000 l    df *ABS*	00000000 alt_release_fd.c
00000000 l    df *ABS*	00000000 alt_sbrk.c
000579ec l     O .rwdata	00000004 heap_end
00000000 l    df *ABS*	00000000 alt_write.c
00051a04 l     F .text	0000003c alt_get_errno
00000000 l    df *ABS*	00000000 alt_sys_init.c
00051b38 l     F .text	00000034 alt_dev_reg
00056914 l     O .rwdata	00000038 i2c_dac
0005694c l     O .rwdata	00001060 jtag_uart
00000000 l    df *ABS*	00000000 altera_avalon_i2c.c
00051c14 l     F .text	00000110 optional_irq_callback
00051d74 l     F .text	0000009c alt_avalon_i2c_irq
00000000 l    df *ABS*	00000000 altera_avalon_jtag_uart_fd.c
00000000 l    df *ABS*	00000000 altera_avalon_jtag_uart_init.c
00053a38 l     F .text	0000020c altera_avalon_jtag_uart_irq
00053c44 l     F .text	000000a0 altera_avalon_jtag_uart_timeout
00000000 l    df *ABS*	00000000 altera_avalon_jtag_uart_ioctl.c
00000000 l    df *ABS*	00000000 altera_avalon_jtag_uart_read.c
00000000 l    df *ABS*	00000000 altera_avalon_jtag_uart_write.c
00000000 l    df *ABS*	00000000 altera_avalon_timer_sc.c
0005427c l     F .text	00000078 alt_avalon_timer_sc_irq
00000000 l    df *ABS*	00000000 alt_alarm_start.c
00000000 l    df *ABS*	00000000 alt_busy_sleep.c
00000000 l    df *ABS*	00000000 alt_dcache_flush_all.c
00000000 l    df *ABS*	00000000 alt_dev_llist_insert.c
0005463c l     F .text	0000003c alt_get_errno
00000000 l    df *ABS*	00000000 alt_do_ctors.c
00000000 l    df *ABS*	00000000 alt_do_dtors.c
00000000 l    df *ABS*	00000000 alt_find_dev.c
00000000 l    df *ABS*	00000000 alt_icache_flush_all.c
00000000 l    df *ABS*	00000000 alt_iic.c
00000000 l    df *ABS*	00000000 alt_iic_isr_register.c
00000000 l    df *ABS*	00000000 alt_io_redirect.c
00054b40 l     F .text	000000c4 alt_open_fd
00000000 l    df *ABS*	00000000 alt_irq_vars.c
00000000 l    df *ABS*	00000000 alt_open.c
00054c80 l     F .text	0000003c alt_get_errno
00054cbc l     F .text	000000c4 alt_file_locked
00000000 l    df *ABS*	00000000 alt_printf.c
00000000 l    df *ABS*	00000000 alt_putchar.c
00000000 l    df *ABS*	00000000 alt_tick.c
00000000 l    df *ABS*	00000000 altera_nios2_gen2_irq.c
00000000 l    df *ABS*	00000000 alt_find_file.c
00000000 l    df *ABS*	00000000 alt_get_fd.c
00000000 l    df *ABS*	00000000 alt_icache_flush.c
00000000 l    df *ABS*	00000000 atexit.c
00000000 l    df *ABS*	00000000 exit.c
00000000 l    df *ABS*	00000000 memcmp.c
00000000 l    df *ABS*	00000000 putc.c
00000000 l    df *ABS*	00000000 __atexit.c
00000000 l    df *ABS*	00000000 __call_atexit.c
00000000 l    df *ABS*	00000000 alt_exit.c
00059578 g     O .bss	00000004 alt_instruction_exception_handler
0004dce4 g     F .text	00000074 _mprec_log10
0004ddd0 g     F .text	0000008c __any_on
00050154 g     F .text	00000054 _isatty_r
00055d34 g     O .rodata	00000028 __mprec_tinytens
000516f4 g     F .text	0000007c alt_main
0004194c g     F .text	0000009c convert_adc_to_signal
00047034 g     F .text	000000c0 _puts_r
00041aac g     F .text	00000080 send_to_PCF
000595a4 g     O .bss	00000100 alt_irq
000501a8 g     F .text	00000060 _lseek_r
000424a0 g     F .text	0000019c log
00057a04 g       *ABS*	00000000 __flash_rwdata_start
000459c8 g     F .text	00000088 .hidden __eqdf2
000596a4 g       *ABS*	00000000 __alt_heap_start
00046ff8 g     F .text	0000003c printf
000503c0 g     F .text	0000009c _wcrtomb_r
0004e4ec g     F .text	0000005c __sseek
0004b444 g     F .text	00000010 __sinit
00050268 g     F .text	00000140 __swbuf_r
0004bf0c g     F .text	0000007c _setlocale_r
0004b2ac g     F .text	00000068 __sfmoreglue
0005246c g     F .text	000000a8 alt_avalon_i2c_rx_read
00051794 g     F .text	00000024 __malloc_unlock
000421c4 g     F .text	00000100 round
000437fc g     F .text	00000440 .hidden __divsf3
0005366c g     F .text	00000044 alt_avalon_i2c_enabled_ints_get
000521f0 g     F .text	00000094 alt_avalon_i2c_master_config_speed_get
00041330 g     F .text	00000234 calc_order
00041564 g     F .text	000000f4 modulo
0004cbdc g     F .text	0000015c memmove
0004b42c g     F .text	00000018 _cleanup
00052ec8 g     F .text	00000208 alt_avalon_i2c_master_transmit_using_interrupts
0004ce60 g     F .text	000000a8 _Balloc
000446a0 g     F .text	00000070 .hidden __fixsfsi
00045a50 g     F .text	000000dc .hidden __gtdf2
000552e0 g     F .text	00000024 altera_nios2_gen2_irq_init
00046fb8 g     F .text	00000010 __errno
00040000 g     F .entry	0000001c __reset
00040e24 g     F .text	00000328 anti_diff_2nd
00041fe4 g     F .text	000001e0 ceil
00040020 g       *ABS*	00000000 __flash_exceptions_start
000500f8 g     F .text	0000005c _fstat_r
0004263c g     F .text	00000340 __ieee754_fmod
0005955c g     O .bss	00000004 errno
0004e468 g     F .text	00000008 __seofread
00059564 g     O .bss	00000004 alt_argv
0005f9ac g       *ABS*	00000000 _gp
000536b0 g     F .text	0000004c alt_avalon_i2c_rx_fifo_threshold_get
000441bc g     F .text	000004e4 .hidden __subsf3
000579b0 g     O .rwdata	00000004 fs
00052380 g     F .text	00000044 alt_avalon_i2c_is_busy
00056794 g     O .rwdata	00000180 alt_fd_list
00052124 g     F .text	000000cc alt_avalon_i2c_master_config_set
000547dc g     F .text	00000090 alt_find_dev
0004ca94 g     F .text	00000148 memcpy
0004b0fc g     F .text	0000000c _cleanup_r
00046bc0 g     F .text	000000dc .hidden __floatsidf
00054c04 g     F .text	0000007c alt_io_redirect
00051058 g     F .text	000000f4 .hidden __ltdf2
00055ad8 g       *ABS*	00000000 __DTOR_END__
00041b2c g     F .text	000001a0 process_lowpass
00052d0c g     F .text	000001bc alt_avalon_i2c_master_transmit
000470f4 g     F .text	00000014 puts
00055540 g     F .text	0000009c alt_exception_cause_generated_bad_addr
00040304 g     F .text	00000130 updateMovingAverage
00043098 g     F .text	00000074 __fpclassifyd
0004dc40 g     F .text	000000a4 __ratio
0004fb9c g     F .text	0000001c __vfiprintf_internal
00053e3c g     F .text	0000021c altera_avalon_jtag_uart_read
00046fc8 g     F .text	00000030 _printf_r
00043278 g     F .text	00000064 .hidden __udivsi3
000422c4 g     F .text	00000084 roundf
00051454 g     F .text	000000a4 isatty
00055d84 g     O .rodata	000000c8 __mprec_tens
0004bf88 g     F .text	0000000c __locale_charset
00043cf8 g     F .text	000000c8 .hidden __lesf2
000554b0 g     F .text	00000090 alt_icache_flush
00051f90 g     F .text	00000098 alt_avalon_i2c_enable
00059558 g     O .bss	00000004 __malloc_top_pad
000535a0 g     F .text	00000068 alt_avalon_i2c_int_disable
000579c4 g     O .rwdata	00000004 __mb_cur_max
0004bfb8 g     F .text	0000000c _localeconv_r
0004d26c g     F .text	0000003c __i2b
0004b8c8 g     F .text	000004bc __sfvwrite_r
0004e3c0 g     F .text	00000054 _sbrk_r
00050208 g     F .text	00000060 _read_r
000579e4 g     O .rwdata	00000004 alt_max_fd
0004fdec g     F .text	000000f0 _fclose_r
0004114c g     F .text	000001e4 anti_diff_1st
0004b0c4 g     F .text	00000030 fflush
00059554 g     O .bss	00000004 __malloc_max_sbrked_mem
000530d0 g     F .text	0000020c alt_avalon_i2c_master_receive
00046c9c g     F .text	00000110 .hidden __extendsfdf2
00044834 g     F .text	000008ac .hidden __adddf3
0004d9e8 g     F .text	0000010c __b2d
00050b20 g     F .text	00000538 .hidden __umoddi3
00051620 g     F .text	000000d4 lseek
000579b8 g     O .rwdata	00000004 __fdlib_version
00053608 g     F .text	00000064 alt_avalon_i2c_int_enable
000579bc g     O .rwdata	00000004 _global_impure_ptr
0004de5c g     F .text	00000564 _realloc_r
000596a4 g       *ABS*	00000000 __bss_end
00054a50 g     F .text	000000f0 alt_iic_isr_register
000551d8 g     F .text	00000108 alt_tick
000505a8 g     F .text	00000578 .hidden __udivdi3
000534c8 g     F .text	00000058 alt_avalon_i2c_int_status_get
00050054 g     F .text	00000024 _fputwc_r
00055d5c g     O .rodata	00000028 __mprec_bigtens
0004d050 g     F .text	00000104 __s2b
0005114c g     F .text	000000a8 .hidden __floatunsidf
0004d728 g     F .text	00000060 __mcmp
0004b464 g     F .text	00000018 __fp_lock_all
00054a04 g     F .text	0000004c alt_ic_irq_enabled
0005513c g     F .text	0000009c alt_alarm_stop
00051e10 g     F .text	00000054 alt_avalon_i2c_register_callback
0005956c g     O .bss	00000004 alt_irq_active
00051e64 g     F .text	000000ec alt_avalon_i2c_init
000400fc g     F .exceptions	000000d4 alt_irq_handler
0005676c g     O .rwdata	00000028 alt_dev_null
00041ccc g     F .text	000000b0 top
000545f4 g     F .text	00000048 alt_dcache_flush_all
0004d154 g     F .text	00000068 __hi0bits
00046b40 g     F .text	00000080 .hidden __fixdfsi
00059540 g     O .bss	00000004 y_prev
00057a04 g       *ABS*	00000000 __ram_rwdata_end
000579dc g     O .rwdata	00000008 alt_dev_list
00051a40 g     F .text	000000f8 write
000556a4 g     F .text	000000a0 _putc_r
000527a0 g     F .text	0000004c alt_avalon_i2c_check_arblost
00043c3c g     F .text	000000bc .hidden __gtsf2
00053564 g     F .text	0000003c alt_avalon_i2c_int_clear
00055ec8 g       *ABS*	00000000 __ram_rodata_end
00051368 g     F .text	000000b0 fstat
00051058 g     F .text	000000f4 .hidden __ledf2
000579f0 g     O .rwdata	00000008 alt_avalon_i2c_list
0004d4a0 g     F .text	00000140 __pow5mult
0004e740 g     F .text	0000145c ___vfiprintf_internal_r
0005954c g     O .bss	00000004 __nlocale_changed
000432dc g     F .text	00000058 .hidden __umodsi3
000596a4 g       *ABS*	00000000 end
000409b8 g     F .text	0000046c anti_diff_3rd
00053978 g     F .text	000000c0 altera_avalon_jtag_uart_init
000401d0 g     F .exceptions	00000074 alt_instruction_exception_entry
00051f50 g     F .text	00000040 alt_avalon_i2c_open
00055ad8 g       *ABS*	00000000 __CTOR_LIST__
00067100 g       *ABS*	00000000 __alt_stack_pointer
00052920 g     F .text	000000e8 alt_avalon_i2c_master_tx
000542f4 g     F .text	0000007c alt_avalon_timer_sc_init
00046f54 g     F .text	00000064 .hidden __clzsi2
00042348 g     F .text	00000158 fmod
00054058 g     F .text	00000224 altera_avalon_jtag_uart_write
0004b454 g     F .text	00000004 __sfp_lock_acquire
0004c9b0 g     F .text	000000e4 memchr
000471a0 g     F .text	000021f8 ___vfprintf_internal_r
0004b5b8 g     F .text	00000310 _free_r
00054ed4 g     F .text	0000022c alt_printf
0004bf94 g     F .text	00000010 __locale_mb_cur_max
00055924 g     F .text	00000180 __call_exitprocs
00059548 g     O .bss	00000004 __mlocale_changed
00051d24 g     F .text	00000050 alt_avalon_i2c_register_optional_irq_handler
000579c8 g     O .rwdata	00000004 __malloc_sbrk_base
00040244 g     F .text	0000004c _start
00059570 g     O .bss	00000004 _alt_tick_rate
00040788 g     F .text	00000230 anti_diff_nth
000532dc g     F .text	000001ec alt_avalon_i2c_master_receive_using_interrupts
000536fc g     F .text	00000064 alt_avalon_i2c_rx_fifo_threshold_set
0004d5e0 g     F .text	00000148 __lshift
00059574 g     O .bss	00000004 _alt_nticks
000517f4 g     F .text	000000fc read
00051ba4 g     F .text	00000070 alt_sys_init
00044710 g     F .text	00000124 .hidden __floatsisf
0005580c g     F .text	00000118 __register_exitproc
00052b44 g     F .text	000001c8 alt_avalon_i2c_master_tx_rx
0004d2a8 g     F .text	000001f8 __multiply
00053ce4 g     F .text	00000068 altera_avalon_jtag_uart_close
00055ec8 g       *ABS*	00000000 __ram_rwdata_start
00055ad8 g       *ABS*	00000000 __ram_rodata_start
0005957c g     O .bss	00000028 __malloc_current_mallinfo
0004daf4 g     F .text	0000014c __d2b
00041d7c g     F .text	00000064 stream_adc_out
00053814 g     F .text	00000060 altera_avalon_jtag_uart_read_fd
0005540c g     F .text	000000a4 alt_get_fd
0005449c g     F .text	00000158 alt_busy_sleep
0004fcd4 g     F .text	00000054 _close_r
00055628 g     F .text	0000007c memcmp
000523c4 g     F .text	000000a8 alt_avalon_i2c_rx_read_available
000538d4 g     F .text	00000050 altera_avalon_jtag_uart_close_fd
000596a4 g       *ABS*	00000000 __alt_stack_base
00053924 g     F .text	00000054 altera_avalon_jtag_uart_ioctl_fd
00049470 g     F .text	00000154 __swsetup_r
000450e0 g     F .text	000008e8 .hidden __divdf3
0004b314 g     F .text	00000118 __sfp
0004dd58 g     F .text	00000078 __copybits
00056364 g     O .rwdata	00000408 __malloc_av_
0004b460 g     F .text	00000004 __sinit_lock_release
00045b2c g     F .text	00000718 .hidden __muldf3
0004e414 g     F .text	00000054 __sread
00055304 g     F .text	00000108 alt_find_file
00054678 g     F .text	000000a4 alt_dev_llist_insert
00051770 g     F .text	00000024 __malloc_lock
00051954 g     F .text	000000b0 sbrk
000527ec g     F .text	00000134 alt_avalon_i2c_interrupt_transaction_status
00052754 g     F .text	0000004c alt_avalon_i2c_check_nack
0004b068 g     F .text	0000005c _fflush_r
0004fd28 g     F .text	000000c4 _calloc_r
00059540 g       *ABS*	00000000 __bss_start
0004cd38 g     F .text	00000128 memset
00041de0 g     F .text	00000204 main
00052720 g     F .text	00000034 alt_avalon_i2c_master_target_set
00059568 g     O .bss	00000004 alt_envp
00059550 g     O .bss	00000004 __malloc_max_total_mem
00053874 g     F .text	00000060 altera_avalon_jtag_uart_write_fd
000503a8 g     F .text	00000018 __swbuf
00053520 g     F .text	00000044 alt_avalon_i2c_int_raw_status_get
00043cf8 g     F .text	000000c8 .hidden __ltsf2
000579ac g     O .rwdata	00000004 fc
0004e548 g     F .text	00000008 __sclose
0004310c g     F .text	00000008 matherr
00067100 g       *ABS*	00000000 __alt_heap_limit
0004fedc g     F .text	00000014 fclose
00046dac g     F .text	000001a8 .hidden __truncdfsf2
000497c4 g     F .text	00001688 _dtoa_r
0004c1a4 g     F .text	0000080c _malloc_r
00040290 g     F .text	00000074 initMovingAverage
0005051c g     F .text	00000030 __ascii_wctomb
000579e8 g     O .rwdata	00000004 alt_errno
0004bd84 g     F .text	000000c4 _fwalk
00055744 g     F .text	000000c8 putc
00043180 g     F .text	00000084 .hidden __divsi3
00040434 g     F .text	00000228 initReconstructor
0004b494 g     F .text	00000124 _malloc_trim_r
00055ad8 g       *ABS*	00000000 __CTOR_END__
00043dc0 g     F .text	000003fc .hidden __mulsf3
0004e550 g     F .text	000000dc strcmp
00055ad8 g       *ABS*	00000000 __flash_rodata_start
00055ad8 g       *ABS*	00000000 __DTOR_LIST__
000419e8 g     F .text	000000c4 float_to_dac
000459c8 g     F .text	00000088 .hidden __nedf2
00051b6c g     F .text	00000038 alt_irq_init
000518f0 g     F .text	00000064 alt_release_fd
00055ba0 g     O .rodata	00000100 .hidden __clz_tab
00059544 g     O .bss	00000004 _PathLocale
000555dc g     F .text	00000014 atexit
00043c3c g     F .text	000000bc .hidden __gesf2
0004fc74 g     F .text	00000060 _write_r
00041658 g     F .text	0000009c center_to_2lam
0004bfc4 g     F .text	00000018 setlocale
000579c0 g     O .rwdata	00000004 _impure_ptr
00059560 g     O .bss	00000004 alt_argc
0004ae4c g     F .text	0000021c __sflush_r
0005477c g     F .text	00000060 _do_dtors
0004bfb0 g     F .text	00000008 __locale_cjk_lang
0004297c g     F .text	0000071c __ieee754_log
000526e8 g     F .text	00000038 alt_avalon_i2c_master_target_get
000525f8 g     F .text	000000f0 alt_avalon_i2c_send_address
00040020 g       .exceptions	00000000 alt_irq_entry
0004d984 g     F .text	00000064 __ulp
0004b47c g     F .text	00000018 __fp_unlock_all
000579d4 g     O .rwdata	00000008 alt_fs_list
00043114 g     F .text	0000000c nan
00040020 g       *ABS*	00000000 __ram_exceptions_start
0004bfdc g     F .text	0000000c localeconv
00040000 g       *ABS*	00000000 __alt_mem_onchip_memory2
000537ac g     F .text	00000068 alt_avalon_i2c_tfr_cmd_fifo_threshold_set
000548a0 g     F .text	00000050 alt_ic_isr_register
00052028 g     F .text	0000004c alt_avalon_i2c_disable
00057a04 g       *ABS*	00000000 _edata
000596a4 g       *ABS*	00000000 _end
0004fef0 g     F .text	00000164 __fputwc
00040244 g       *ABS*	00000000 __ram_exceptions_end
00053d4c g     F .text	000000f0 altera_avalon_jtag_uart_ioctl
00052074 g     F .text	000000b0 alt_avalon_i2c_master_config_get
00054978 g     F .text	0000008c alt_ic_irq_disable
0004e470 g     F .text	0000007c __swrite
000579cc g     O .rwdata	00000004 __malloc_trim_threshold
0004bfa4 g     F .text	0000000c __locale_msgcharset
000555f0 g     F .text	00000038 exit
000579b4 g     O .rwdata	00000004 a
0004be48 g     F .text	000000c4 _fwalk_reent
0004d788 g     F .text	000001fc __mdiff
00043204 g     F .text	00000074 .hidden __modsi3
00067100 g       *ABS*	00000000 __alt_data_end
00040020 g     F .exceptions	00000000 alt_exception
0004b458 g     F .text	00000004 __sfp_lock_release
00052284 g     F .text	000000fc alt_avalon_i2c_master_config_speed_set
000416f4 g     F .text	00000258 update
00052514 g     F .text	000000e4 alt_avalon_i2c_cmd_write
00043120 g     F .text	00000060 .hidden __fixunssfsi
00055aa4 g     F .text	00000034 _exit
00054370 g     F .text	0000012c alt_alarm_start
0004bfe8 g     F .text	000001bc __smakebuf_r
00047108 g     F .text	00000098 strlen
00054d80 g     F .text	00000154 open
00045a50 g     F .text	000000dc .hidden __gedf2
00055100 g     F .text	0000003c alt_putchar
000579d0 g     O .rwdata	00000004 __wctomb
0004e728 g     F .text	00000018 __sprint_r
0005486c g     F .text	00000034 alt_icache_flush_all
0004065c g     F .text	0000012c nth_order_difference
000579f8 g     O .rwdata	00000004 alt_priority_mask
000548f0 g     F .text	00000088 alt_ic_irq_enable
00049398 g     F .text	0000001c __vfprintf_internal
0005054c g     F .text	0000005c _wctomb_r
00046244 g     F .text	000008fc .hidden __subdf3
0004d1bc g     F .text	000000b0 __lo0bits
000579fc g     O .rwdata	00000008 alt_alarm_list
0005471c g     F .text	00000060 _do_ctors
0005045c g     F .text	000000c0 wcrtomb
00051230 g     F .text	000000d0 close
00043334 g     F .text	000004c8 .hidden __addsf3
00053760 g     F .text	0000004c alt_avalon_i2c_tfr_cmd_fifo_threshold_get
00051560 g     F .text	00000084 alt_load
00052a08 g     F .text	0000013c alt_avalon_i2c_master_rx
00050078 g     F .text	00000080 fputwc
0004b45c g     F .text	00000004 __sinit_lock_acquire
0004cf30 g     F .text	00000120 __multadd
0004cf08 g     F .text	00000028 _Bfree



Disassembly of section .entry:

00040000 <__reset>:
#if NIOS2_ICACHE_SIZE > 0 && defined(ALT_ALLOW_CODE_AT_RESET) && (!defined(ALT_SIM_OPTIMIZE) || defined(NIOS2_ECC_PRESENT))
    /* Assume the instruction cache size is always a power of two. */
#if NIOS2_ICACHE_SIZE > 0x8000
    movhi r2, %hi(NIOS2_ICACHE_SIZE)
#else
    movui r2, NIOS2_ICACHE_SIZE
   40000:	00840014 	movui	r2,4096
#endif

0:
    initi r2
   40004:	1001483a 	initi	r2
    addi r2, r2, -NIOS2_ICACHE_LINE_SIZE
   40008:	10bff804 	addi	r2,r2,-32
    bgt r2, zero, 0b
   4000c:	00bffd16 	blt	zero,r2,40004 <__alt_data_end+0xfffd8f04>
 * Jump to the _start entry point in the .text section if reset code
 * is allowed or if optimizing for RTL simulation.
 */
#if defined(ALT_ALLOW_CODE_AT_RESET) || defined(ALT_SIM_OPTIMIZE)
    /* Jump to the _start entry point in the .text section. */
    movhi r1, %hi(_start)
   40010:	00400134 	movhi	at,4
    ori r1, r1, %lo(_start)
   40014:	08409114 	ori	at,at,580
    jmp r1
   40018:	0800683a 	jmp	at
   4001c:	00000000 	call	0 <__alt_mem_onchip_memory2-0x40000>

Disassembly of section .exceptions:

00040020 <alt_exception>:

#else /* ALT_EXCEPTION_STACK disabled */
        /* 
         * Reserve space on normal stack for registers about to be pushed.
         */
        addi  sp, sp, -76
   40020:	deffed04 	addi	sp,sp,-76
         * documentation for details).
         *
         * Leave a gap in the stack frame at 4(sp) for the muldiv handler to
         * store zero into.
         */
        stw   ra,  0(sp)
   40024:	dfc00015 	stw	ra,0(sp)
        stw   r1,   8(sp)
   40028:	d8400215 	stw	at,8(sp)
        stw   r2,  12(sp)
   4002c:	d8800315 	stw	r2,12(sp)
        stw   r3,  16(sp)
   40030:	d8c00415 	stw	r3,16(sp)
        stw   r4,  20(sp)
   40034:	d9000515 	stw	r4,20(sp)
        stw   r5,  24(sp)
   40038:	d9400615 	stw	r5,24(sp)
        stw   r6,  28(sp)
   4003c:	d9800715 	stw	r6,28(sp)
        stw   r7,  32(sp)
   40040:	d9c00815 	stw	r7,32(sp)
        rdctl r5, estatus   /* Read early to avoid usage stall */
   40044:	000b307a 	rdctl	r5,estatus
        stw   r8,  36(sp)
   40048:	da000915 	stw	r8,36(sp)
        stw   r9,  40(sp)
   4004c:	da400a15 	stw	r9,40(sp)
        stw   r10, 44(sp)
   40050:	da800b15 	stw	r10,44(sp)
        stw   r11, 48(sp)
   40054:	dac00c15 	stw	r11,48(sp)
        stw   r12, 52(sp)
   40058:	db000d15 	stw	r12,52(sp)
        stw   r13, 56(sp)
   4005c:	db400e15 	stw	r13,56(sp)
        stw   r14, 60(sp)
   40060:	db800f15 	stw	r14,60(sp)
        stw   r15, 64(sp)
   40064:	dbc01015 	stw	r15,64(sp)
        /*
         * ea-4 contains the address of the instruction being executed
         * when the exception occured. For interrupt exceptions, we will
         * will be re-issue the isntruction. Store it in 72(sp)
         */
        stw   r5,  68(sp)  /* estatus */
   40068:	d9401115 	stw	r5,68(sp)
        addi  r15, ea, -4  /* instruction that caused exception */
   4006c:	ebffff04 	addi	r15,ea,-4
        stw   r15,  72(sp)
   40070:	dbc01215 	stw	r15,72(sp)
#else
        /*
         * Test to see if the exception was a software exception or caused 
         * by an external interrupt, and vector accordingly.
         */
        rdctl r4, ipending
   40074:	0009313a 	rdctl	r4,ipending
        andi  r2, r5, 1
   40078:	2880004c 	andi	r2,r5,1
        beq   r2, zero, .Lnot_irq
   4007c:	10000326 	beq	r2,zero,4008c <alt_exception+0x6c>
        beq   r4, zero, .Lnot_irq
   40080:	20000226 	beq	r4,zero,4008c <alt_exception+0x6c>
        /*
         * Now that all necessary registers have been preserved, call 
         * alt_irq_handler() to process the interrupts.
         */

        call alt_irq_handler
   40084:	00400fc0 	call	400fc <alt_irq_handler>

        .section .exceptions.irqreturn, "xa"

        br    .Lexception_exit
   40088:	00000706 	br	400a8 <alt_exception+0x88>
         * upon completion, so we write ea (address of instruction *after*
         * the one where the exception occured) into 72(sp). The actual
         * instruction that caused the exception is written in r2, which these
         * handlers will utilize.
         */
        stw ea, 72(sp) /* EA is PC+4 so will skip over instruction causing exception */
   4008c:	df401215 	stw	ea,72(sp)
.Lunknown_16bit:
        addi.n r4, r4, 2 /* Need PC+2 to skip over instruction causing exception */
        stw r4, 72(sp)

#else /* CDX is not Enabled and all instructions are 32bits */
        ldw r2, -4(ea) /* Instruction value that caused exception */
   40090:	e8bfff17 	ldw	r2,-4(ea)
         * debugger is present) or go into an infinite loop since the
         * handling behavior is undefined; in that case we will not return here.
         */

        /* Load exception-causing address as first argument (r4) */
        addi   r4, ea, -4
   40094:	e93fff04 	addi	r4,ea,-4

        /* Call the instruction-exception entry */
        call   alt_instruction_exception_entry
   40098:	00401d00 	call	401d0 <alt_instruction_exception_entry>
         * instruction
         *
         * Return code was 0: Skip. The instruction after the exception is
         * already stored in 72(sp).
         */
        bne   r2, r0, .Lexception_exit
   4009c:	1000021e 	bne	r2,zero,400a8 <alt_exception+0x88>

        /*
         * Otherwise, modify 72(sp) to re-issue the instruction that caused the
         * exception.
         */
        addi  r15, ea, -4  /* instruction that caused exception */
   400a0:	ebffff04 	addi	r15,ea,-4
        stw   r15,  72(sp)
   400a4:	dbc01215 	stw	r15,72(sp)
        /* 
         * Restore the saved registers, so that all general purpose registers 
         * have been restored to their state at the time the interrupt occured.
         */

        ldw   r5,  68(sp)
   400a8:	d9401117 	ldw	r5,68(sp)
        ldw   ea,  72(sp)  /* This becomes the PC once eret is executed */
   400ac:	df401217 	ldw	ea,72(sp)
        ldw   ra,   0(sp)
   400b0:	dfc00017 	ldw	ra,0(sp)

        wrctl estatus, r5
   400b4:	2801707a 	wrctl	estatus,r5

        ldw   r1,   8(sp)
   400b8:	d8400217 	ldw	at,8(sp)
        ldw   r2,  12(sp)
   400bc:	d8800317 	ldw	r2,12(sp)
        ldw   r3,  16(sp)
   400c0:	d8c00417 	ldw	r3,16(sp)
        ldw   r4,  20(sp)
   400c4:	d9000517 	ldw	r4,20(sp)
        ldw   r5,  24(sp)
   400c8:	d9400617 	ldw	r5,24(sp)
        ldw   r6,  28(sp)
   400cc:	d9800717 	ldw	r6,28(sp)
        ldw   r7,  32(sp)
   400d0:	d9c00817 	ldw	r7,32(sp)

#if defined(ALT_EXCEPTION_STACK) && defined(ALT_STACK_CHECK)
        ldw   et, %gprel(alt_exception_old_stack_limit)(gp)
#endif

        ldw   r8,  36(sp)
   400d4:	da000917 	ldw	r8,36(sp)
        ldw   r9,  40(sp)
   400d8:	da400a17 	ldw	r9,40(sp)
        ldw   r10, 44(sp)
   400dc:	da800b17 	ldw	r10,44(sp)
        ldw   r11, 48(sp)
   400e0:	dac00c17 	ldw	r11,48(sp)
        ldw   r12, 52(sp)
   400e4:	db000d17 	ldw	r12,52(sp)
        ldw   r13, 56(sp)
   400e8:	db400e17 	ldw	r13,56(sp)
        ldw   r14, 60(sp)
   400ec:	db800f17 	ldw	r14,60(sp)
        ldw   r15, 64(sp)
   400f0:	dbc01017 	ldw	r15,64(sp)
        stw   et, %gprel(alt_stack_limit_value)(gp)
        stw   zero, %gprel(alt_exception_old_stack_limit)(gp)
#endif /* ALT_STACK_CHECK */
        ldw   sp,  76(sp)
#else /* ALT_EXCEPTION_STACK disabled */
        addi  sp, sp, 76
   400f4:	dec01304 	addi	sp,sp,76

        /*
         * Return to the interrupted instruction.
         */

        eret
   400f8:	ef80083a 	eret

000400fc <alt_irq_handler>:
 * instruction is present if the macro ALT_CI_INTERRUPT_VECTOR defined.
 */

void alt_irq_handler (void) __attribute__ ((section (".exceptions")));
void alt_irq_handler (void)
{
   400fc:	defff904 	addi	sp,sp,-28
   40100:	dfc00615 	stw	ra,24(sp)
   40104:	df000515 	stw	fp,20(sp)
   40108:	df000504 	addi	fp,sp,20
  
  /*
   * Notify the operating system that we are at interrupt level.
   */ 
  
  ALT_OS_INT_ENTER();
   4010c:	0001883a 	nop
#ifndef NIOS2_EIC_PRESENT
static ALT_INLINE alt_u32 ALT_ALWAYS_INLINE alt_irq_pending (void)
{
  alt_u32 active;

  NIOS2_READ_IPENDING (active);
   40110:	0005313a 	rdctl	r2,ipending
   40114:	e0bffe15 	stw	r2,-8(fp)

  return active;
   40118:	e0bffe17 	ldw	r2,-8(fp)
   * Consider the case where the high priority interupt is asserted during
   * the interrupt entry sequence for a lower priority interrupt to see why
   * this is the case.
   */

  active = alt_irq_pending ();
   4011c:	e0bffb15 	stw	r2,-20(fp)

  do
  {
    i = 0;
   40120:	e03ffd15 	stw	zero,-12(fp)
    mask = 1;
   40124:	00800044 	movi	r2,1
   40128:	e0bffc15 	stw	r2,-16(fp)
     * called to clear the interrupt condition.
     */

    do
    {
      if (active & mask)
   4012c:	e0fffb17 	ldw	r3,-20(fp)
   40130:	e0bffc17 	ldw	r2,-16(fp)
   40134:	1884703a 	and	r2,r3,r2
   40138:	10001426 	beq	r2,zero,4018c <alt_irq_handler+0x90>
      { 
#ifdef ALT_ENHANCED_INTERRUPT_API_PRESENT
        alt_irq[i].handler(alt_irq[i].context); 
   4013c:	008001b4 	movhi	r2,6
   40140:	10a56904 	addi	r2,r2,-27228
   40144:	e0fffd17 	ldw	r3,-12(fp)
   40148:	180690fa 	slli	r3,r3,3
   4014c:	10c5883a 	add	r2,r2,r3
   40150:	10c00017 	ldw	r3,0(r2)
   40154:	008001b4 	movhi	r2,6
   40158:	10a56904 	addi	r2,r2,-27228
   4015c:	e13ffd17 	ldw	r4,-12(fp)
   40160:	200890fa 	slli	r4,r4,3
   40164:	1105883a 	add	r2,r2,r4
   40168:	10800104 	addi	r2,r2,4
   4016c:	10800017 	ldw	r2,0(r2)
   40170:	1009883a 	mov	r4,r2
   40174:	183ee83a 	callr	r3
#else
        alt_irq[i].handler(alt_irq[i].context, i); 
#endif
        break;
   40178:	0001883a 	nop
#ifndef NIOS2_EIC_PRESENT
static ALT_INLINE alt_u32 ALT_ALWAYS_INLINE alt_irq_pending (void)
{
  alt_u32 active;

  NIOS2_READ_IPENDING (active);
   4017c:	0005313a 	rdctl	r2,ipending
   40180:	e0bfff15 	stw	r2,-4(fp)

  return active;
   40184:	e0bfff17 	ldw	r2,-4(fp)
   40188:	00000706 	br	401a8 <alt_irq_handler+0xac>
      }
      mask <<= 1;
   4018c:	e0bffc17 	ldw	r2,-16(fp)
   40190:	1085883a 	add	r2,r2,r2
   40194:	e0bffc15 	stw	r2,-16(fp)
      i++;
   40198:	e0bffd17 	ldw	r2,-12(fp)
   4019c:	10800044 	addi	r2,r2,1
   401a0:	e0bffd15 	stw	r2,-12(fp)

    } while (1);
   401a4:	003fe106 	br	4012c <__alt_data_end+0xfffd902c>

    active = alt_irq_pending ();
   401a8:	e0bffb15 	stw	r2,-20(fp)
    
  } while (active);
   401ac:	e0bffb17 	ldw	r2,-20(fp)
   401b0:	103fdb1e 	bne	r2,zero,40120 <__alt_data_end+0xfffd9020>

  /*
   * Notify the operating system that interrupt processing is complete.
   */ 

  ALT_OS_INT_EXIT();
   401b4:	0001883a 	nop
}
   401b8:	0001883a 	nop
   401bc:	e037883a 	mov	sp,fp
   401c0:	dfc00117 	ldw	ra,4(sp)
   401c4:	df000017 	ldw	fp,0(sp)
   401c8:	dec00204 	addi	sp,sp,8
   401cc:	f800283a 	ret

000401d0 <alt_instruction_exception_entry>:
 * that handler if it has been registered. Absent a handler, it will
 * break break or hang as discussed below.
 */
int 
alt_instruction_exception_entry (alt_u32 exception_pc)
{
   401d0:	defffb04 	addi	sp,sp,-20
   401d4:	dfc00415 	stw	ra,16(sp)
   401d8:	df000315 	stw	fp,12(sp)
   401dc:	df000304 	addi	fp,sp,12
   401e0:	e13fff15 	stw	r4,-4(fp)
 * NIOS2_EXCEPTION_CAUSE_NOT_PRESENT. Your handling routine should
 * check the validity of the cause argument before proceeding.
 */
#ifdef NIOS2_HAS_EXTRA_EXCEPTION_INFO
  /* Get exception cause & "badaddr" */
  NIOS2_READ_EXCEPTION(cause);
   401e4:	000531fa 	rdctl	r2,exception
   401e8:	e0bffd15 	stw	r2,-12(fp)
  cause = ( (cause & NIOS2_EXCEPTION_REG_CAUSE_MASK) >>
   401ec:	e0bffd17 	ldw	r2,-12(fp)
   401f0:	10801f0c 	andi	r2,r2,124
   401f4:	1004d0ba 	srli	r2,r2,2
   401f8:	e0bffd15 	stw	r2,-12(fp)
              NIOS2_EXCEPTION_REG_CAUSE_OFST );

  NIOS2_READ_BADADDR(badaddr);
   401fc:	0005333a 	rdctl	r2,badaddr
   40200:	e0bffe15 	stw	r2,-8(fp)
#else
  cause = NIOS2_EXCEPTION_CAUSE_NOT_PRESENT;
  badaddr = 0;
#endif /* NIOS2_HAS_EXTRA_EXCEPTION_INFO */

  if(alt_instruction_exception_handler) {
   40204:	d0a6f317 	ldw	r2,-25652(gp)
   40208:	10000726 	beq	r2,zero,40228 <alt_instruction_exception_entry+0x58>
     * Call handler. Its return value indicates whether the exception-causing
     * instruction should be re-issued. The code that called us,
     * alt_eceptions_entry.S, will look at this value and adjust the ea
     * register as necessary
     */
    return alt_instruction_exception_handler(cause, exception_pc, badaddr);
   4020c:	d0a6f317 	ldw	r2,-25652(gp)
   40210:	e0fffd17 	ldw	r3,-12(fp)
   40214:	e1bffe17 	ldw	r6,-8(fp)
   40218:	e17fff17 	ldw	r5,-4(fp)
   4021c:	1809883a 	mov	r4,r3
   40220:	103ee83a 	callr	r2
   40224:	00000206 	br	40230 <alt_instruction_exception_entry+0x60>
   *    (a peripheral which negates its interrupt output before its
   *    interrupt handler has been executed will cause spurious interrupts)
   */
  else {
#ifdef NIOS2_HAS_DEBUG_STUB
    NIOS2_BREAK();
   40228:	003da03a 	break	0
      ;
#endif /* NIOS2_HAS_DEBUG_STUB */
  }

  /* We should not get here. Remove compiler warning. */
  return NIOS2_EXCEPTION_RETURN_REISSUE_INST;
   4022c:	0005883a 	mov	r2,zero
}
   40230:	e037883a 	mov	sp,fp
   40234:	dfc00117 	ldw	ra,4(sp)
   40238:	df000017 	ldw	fp,0(sp)
   4023c:	dec00204 	addi	sp,sp,8
   40240:	f800283a 	ret

Disassembly of section .text:

00040244 <_start>:

    /* Assume the data cache size is always a power of two. */
#if NIOS2_DCACHE_SIZE > 0x8000
    movhi r2, %hi(NIOS2_DCACHE_SIZE)
#else
    movui r2, NIOS2_DCACHE_SIZE
   40244:	00820014 	movui	r2,2048
#endif

0:
    initd 0(r2)
   40248:	10000033 	initd	0(r2)
#ifdef NIOS2_ECC_PRESENT
    addi r2, r2, -4
#else
    addi r2, r2, -NIOS2_DCACHE_LINE_SIZE
   4024c:	10bff804 	addi	r2,r2,-32
#endif
    bgt r2, zero, 0b
   40250:	00bffd16 	blt	zero,r2,40248 <__alt_data_end+0xfffd9148>

    /*
     * Now that the caches are initialized, set up the stack pointer and global pointer.
     * The values provided by the linker are assumed to be correctly aligned.
     */
    movhi sp, %hi(__alt_stack_pointer)
   40254:	06c001b4 	movhi	sp,6
    ori sp, sp, %lo(__alt_stack_pointer)
   40258:	dedc4014 	ori	sp,sp,28928
    movhi gp, %hi(_gp)
   4025c:	06800174 	movhi	gp,5
    ori gp, gp, %lo(_gp)
   40260:	d6be6b14 	ori	gp,gp,63916
 */
#ifndef ALT_SIM_OPTIMIZE
    /* Log that the BSS is about to be cleared. */
    ALT_LOG_PUTS(alt_log_msg_bss)

    movhi r2, %hi(__bss_start)
   40264:	00800174 	movhi	r2,5
    ori r2, r2, %lo(__bss_start)
   40268:	10a55014 	ori	r2,r2,38208

    movhi r3, %hi(__bss_end)
   4026c:	00c00174 	movhi	r3,5
    ori r3, r3, %lo(__bss_end)
   40270:	18e5a914 	ori	r3,r3,38564

    beq r2, r3, 1f
   40274:	10c00326 	beq	r2,r3,40284 <_start+0x40>

0:
    stw zero, (r2)
   40278:	10000015 	stw	zero,0(r2)
    addi r2, r2, 4
   4027c:	10800104 	addi	r2,r2,4
    bltu r2, r3, 0b
   40280:	10fffd36 	bltu	r2,r3,40278 <__alt_data_end+0xfffd9178>
     * section aren't defined until alt_load() has been called).
     */
    mov   et, zero
#endif

    call alt_load
   40284:	00515600 	call	51560 <alt_load>

    /* Log that alt_main is about to be called. */
    ALT_LOG_PUTS(alt_log_msg_alt_main)

    /* Call the C entry point. It should never return. */
    call alt_main
   40288:	00516f40 	call	516f4 <alt_main>

0004028c <alt_after_alt_main>:

    /* Wait in infinite loop in case alt_main does return. */
alt_after_alt_main:
    br alt_after_alt_main
   4028c:	003fff06 	br	4028c <__alt_data_end+0xfffd918c>

00040290 <initMovingAverage>:
    int index;
    int count;
    float sum;
} MovingAverage;

void initMovingAverage(MovingAverage *ma) {
   40290:	defffd04 	addi	sp,sp,-12
   40294:	df000215 	stw	fp,8(sp)
   40298:	df000204 	addi	fp,sp,8
   4029c:	e13fff15 	stw	r4,-4(fp)
    ma->index = 0;
   402a0:	e0bfff17 	ldw	r2,-4(fp)
   402a4:	10006415 	stw	zero,400(r2)
    ma->count = 0;
   402a8:	e0bfff17 	ldw	r2,-4(fp)
   402ac:	10006515 	stw	zero,404(r2)
    ma->sum = 0.0;
   402b0:	e0bfff17 	ldw	r2,-4(fp)
   402b4:	10006615 	stw	zero,408(r2)

    for (int i = 0; i < MA_WINDOW_SIZE; i++) {
   402b8:	e03ffe15 	stw	zero,-8(fp)
   402bc:	00000906 	br	402e4 <initMovingAverage+0x54>
        ma->buffer[i] = 0.0;
   402c0:	e0ffff17 	ldw	r3,-4(fp)
   402c4:	e0bffe17 	ldw	r2,-8(fp)
   402c8:	1085883a 	add	r2,r2,r2
   402cc:	1085883a 	add	r2,r2,r2
   402d0:	1885883a 	add	r2,r3,r2
   402d4:	10000015 	stw	zero,0(r2)
void initMovingAverage(MovingAverage *ma) {
    ma->index = 0;
    ma->count = 0;
    ma->sum = 0.0;

    for (int i = 0; i < MA_WINDOW_SIZE; i++) {
   402d8:	e0bffe17 	ldw	r2,-8(fp)
   402dc:	10800044 	addi	r2,r2,1
   402e0:	e0bffe15 	stw	r2,-8(fp)
   402e4:	e0bffe17 	ldw	r2,-8(fp)
   402e8:	10801910 	cmplti	r2,r2,100
   402ec:	103ff41e 	bne	r2,zero,402c0 <__alt_data_end+0xfffd91c0>
        ma->buffer[i] = 0.0;
    }
}
   402f0:	0001883a 	nop
   402f4:	e037883a 	mov	sp,fp
   402f8:	df000017 	ldw	fp,0(sp)
   402fc:	dec00104 	addi	sp,sp,4
   40300:	f800283a 	ret

00040304 <updateMovingAverage>:

//}
float updateMovingAverage(MovingAverage *ma, float new_sample) {
   40304:	defffb04 	addi	sp,sp,-20
   40308:	dfc00415 	stw	ra,16(sp)
   4030c:	df000315 	stw	fp,12(sp)
   40310:	dc000215 	stw	r16,8(sp)
   40314:	df000304 	addi	fp,sp,12
   40318:	e13ffd15 	stw	r4,-12(fp)
   4031c:	e17ffe15 	stw	r5,-8(fp)
    // Remove the oldest sample from the sum
    ma->sum -= ma->buffer[ma->index];
   40320:	e0bffd17 	ldw	r2,-12(fp)
   40324:	11006617 	ldw	r4,408(r2)
   40328:	e0bffd17 	ldw	r2,-12(fp)
   4032c:	10806417 	ldw	r2,400(r2)
   40330:	e0fffd17 	ldw	r3,-12(fp)
   40334:	1085883a 	add	r2,r2,r2
   40338:	1085883a 	add	r2,r2,r2
   4033c:	1885883a 	add	r2,r3,r2
   40340:	10c00017 	ldw	r3,0(r2)
   40344:	180b883a 	mov	r5,r3
   40348:	00441bc0 	call	441bc <__subsf3>
   4034c:	1009883a 	mov	r4,r2
   40350:	2007883a 	mov	r3,r4
   40354:	e0bffd17 	ldw	r2,-12(fp)
   40358:	10c06615 	stw	r3,408(r2)

    // Add the new sample to the buffer and sum
    ma->buffer[ma->index] = new_sample;
   4035c:	e0bffd17 	ldw	r2,-12(fp)
   40360:	10806417 	ldw	r2,400(r2)
   40364:	e0fffd17 	ldw	r3,-12(fp)
   40368:	1085883a 	add	r2,r2,r2
   4036c:	1085883a 	add	r2,r2,r2
   40370:	1885883a 	add	r2,r3,r2
   40374:	e0fffe17 	ldw	r3,-8(fp)
   40378:	10c00015 	stw	r3,0(r2)
    ma->sum += new_sample;
   4037c:	e0bffd17 	ldw	r2,-12(fp)
   40380:	10c06617 	ldw	r3,408(r2)
   40384:	e17ffe17 	ldw	r5,-8(fp)
   40388:	1809883a 	mov	r4,r3
   4038c:	00433340 	call	43334 <__addsf3>
   40390:	1009883a 	mov	r4,r2
   40394:	2007883a 	mov	r3,r4
   40398:	e0bffd17 	ldw	r2,-12(fp)
   4039c:	10c06615 	stw	r3,408(r2)

    // Update the index (circular buffer)
    ma->index = (ma->index + 1) % MA_WINDOW_SIZE;
   403a0:	e0bffd17 	ldw	r2,-12(fp)
   403a4:	10806417 	ldw	r2,400(r2)
   403a8:	10800044 	addi	r2,r2,1
   403ac:	01401904 	movi	r5,100
   403b0:	1009883a 	mov	r4,r2
   403b4:	00432040 	call	43204 <__modsi3>
   403b8:	1007883a 	mov	r3,r2
   403bc:	e0bffd17 	ldw	r2,-12(fp)
   403c0:	10c06415 	stw	r3,400(r2)

    // Update the count (if less than window size)
    if (ma->count < MA_WINDOW_SIZE) {
   403c4:	e0bffd17 	ldw	r2,-12(fp)
   403c8:	10806517 	ldw	r2,404(r2)
   403cc:	10801908 	cmpgei	r2,r2,100
   403d0:	1000051e 	bne	r2,zero,403e8 <updateMovingAverage+0xe4>
        ma->count++;
   403d4:	e0bffd17 	ldw	r2,-12(fp)
   403d8:	10806517 	ldw	r2,404(r2)
   403dc:	10c00044 	addi	r3,r2,1
   403e0:	e0bffd17 	ldw	r2,-12(fp)
   403e4:	10c06515 	stw	r3,404(r2)
    }

    // Compute the moving average
    return ma->sum / ma->count;
   403e8:	e0bffd17 	ldw	r2,-12(fp)
   403ec:	14006617 	ldw	r16,408(r2)
   403f0:	e0bffd17 	ldw	r2,-12(fp)
   403f4:	10806517 	ldw	r2,404(r2)
   403f8:	1009883a 	mov	r4,r2
   403fc:	00447100 	call	44710 <__floatsisf>
   40400:	1007883a 	mov	r3,r2
   40404:	180b883a 	mov	r5,r3
   40408:	8009883a 	mov	r4,r16
   4040c:	00437fc0 	call	437fc <__divsf3>
   40410:	1009883a 	mov	r4,r2
   40414:	2007883a 	mov	r3,r4
   40418:	1805883a 	mov	r2,r3
}
   4041c:	e6ffff04 	addi	sp,fp,-4
   40420:	dfc00217 	ldw	ra,8(sp)
   40424:	df000117 	ldw	fp,4(sp)
   40428:	dc000017 	ldw	r16,0(sp)
   4042c:	dec00304 	addi	sp,sp,12
   40430:	f800283a 	ret

00040434 <initReconstructor>:


} UnlimitedSamplerReconstructor;

/* Initialize the reconstructor */
void initReconstructor(UnlimitedSamplerReconstructor *recon, float lam) {
   40434:	defff904 	addi	sp,sp,-28
   40438:	df000615 	stw	fp,24(sp)
   4043c:	df000604 	addi	fp,sp,24
   40440:	e13ffe15 	stw	r4,-8(fp)
   40444:	e17fff15 	stw	r5,-4(fp)
    recon->lam = lam;
   40448:	e0bffe17 	ldw	r2,-8(fp)
   4044c:	e0ffff17 	ldw	r3,-4(fp)
   40450:	10c00015 	stw	r3,0(r2)
    recon->prev_y = 0.0;
   40454:	e0bffe17 	ldw	r2,-8(fp)
   40458:	10000115 	stw	zero,4(r2)
    recon->prev_eps = 0.0;
   4045c:	e0bffe17 	ldw	r2,-8(fp)
   40460:	10000215 	stw	zero,8(r2)
    recon->initialized = 0;
   40464:	e0bffe17 	ldw	r2,-8(fp)
   40468:	10000315 	stw	zero,12(r2)
    recon->max_in=0.001;
   4046c:	e0fffe17 	ldw	r3,-8(fp)
   40470:	008ea0f4 	movhi	r2,14979
   40474:	10849bc4 	addi	r2,r2,4719
   40478:	18800415 	stw	r2,16(r3)
    recon->sampling_interval=0.000001;
   4047c:	e0fffe17 	ldw	r3,-8(fp)
   40480:	008d61b4 	movhi	r2,13702
   40484:	108def44 	addi	r2,r2,14269
   40488:	1880d215 	stw	r2,840(r3)
    recon->diff_reset=0;
   4048c:	e0bffe17 	ldw	r2,-8(fp)
   40490:	10000615 	stw	zero,24(r2)
    recon-> anti_diff_reset=0;
   40494:	e0bffe17 	ldw	r2,-8(fp)
   40498:	10000715 	stw	zero,28(r2)
//    recon->max_order=10;
    recon->order=1;
   4049c:	e0bffe17 	ldw	r2,-8(fp)
   404a0:	00c00044 	movi	r3,1
   404a4:	10c00515 	stw	r3,20(r2)
//    recon->J=MAX_J;

    for (int i = 0; i < MAX_ORDER+1; i++) {
   404a8:	e03ffa15 	stw	zero,-24(fp)
   404ac:	00001106 	br	404f4 <initReconstructor+0xc0>
        recon->diff_buffer[i] = 0.0;
   404b0:	e0fffe17 	ldw	r3,-8(fp)
   404b4:	e0bffa17 	ldw	r2,-24(fp)
   404b8:	10800204 	addi	r2,r2,8
   404bc:	1085883a 	add	r2,r2,r2
   404c0:	1085883a 	add	r2,r2,r2
   404c4:	1885883a 	add	r2,r3,r2
   404c8:	10000015 	stw	zero,0(r2)
        recon->anti_diff_buffer[i] = 0.0;
   404cc:	e0fffe17 	ldw	r3,-8(fp)
   404d0:	e0bffa17 	ldw	r2,-24(fp)
   404d4:	10801b44 	addi	r2,r2,109
   404d8:	1085883a 	add	r2,r2,r2
   404dc:	1085883a 	add	r2,r2,r2
   404e0:	1885883a 	add	r2,r3,r2
   404e4:	10000015 	stw	zero,0(r2)
    recon-> anti_diff_reset=0;
//    recon->max_order=10;
    recon->order=1;
//    recon->J=MAX_J;

    for (int i = 0; i < MAX_ORDER+1; i++) {
   404e8:	e0bffa17 	ldw	r2,-24(fp)
   404ec:	10800044 	addi	r2,r2,1
   404f0:	e0bffa15 	stw	r2,-24(fp)
   404f4:	e0bffa17 	ldw	r2,-24(fp)
   404f8:	10801950 	cmplti	r2,r2,101
   404fc:	103fec1e 	bne	r2,zero,404b0 <__alt_data_end+0xfffd93b0>
        recon->diff_buffer[i] = 0.0;
        recon->anti_diff_buffer[i] = 0.0;
    }
    for (int i = 0; i < MAX_ORDER; ++i) {
   40500:	e03ffb15 	stw	zero,-20(fp)
   40504:	00003e06 	br	40600 <initReconstructor+0x1cc>
        recon->s1[i] = 0.0f;
   40508:	e0fffe17 	ldw	r3,-8(fp)
   4050c:	e0bffb17 	ldw	r2,-20(fp)
   40510:	10803504 	addi	r2,r2,212
   40514:	1085883a 	add	r2,r2,r2
   40518:	1085883a 	add	r2,r2,r2
   4051c:	1885883a 	add	r2,r3,r2
   40520:	10000015 	stw	zero,0(r2)
        recon->s2[i] = 0.0f;
   40524:	e0fffe17 	ldw	r3,-8(fp)
   40528:	e0bffb17 	ldw	r2,-20(fp)
   4052c:	10804e04 	addi	r2,r2,312
   40530:	1085883a 	add	r2,r2,r2
   40534:	1085883a 	add	r2,r2,r2
   40538:	1885883a 	add	r2,r3,r2
   4053c:	10000015 	stw	zero,0(r2)
        recon->res_index[i] = 0;
   40540:	e0fffe17 	ldw	r3,-8(fp)
   40544:	e0bffb17 	ldw	r2,-20(fp)
   40548:	1081de04 	addi	r2,r2,1912
   4054c:	1085883a 	add	r2,r2,r2
   40550:	1085883a 	add	r2,r2,r2
   40554:	1885883a 	add	r2,r3,r2
   40558:	10000015 	stw	zero,0(r2)
        for (int j = 0; j < MAX_J; ++j){
   4055c:	e03ffc15 	stw	zero,-16(fp)
   40560:	00002106 	br	405e8 <initReconstructor+0x1b4>
        	recon->s1_hist[i][j] = 0.0f;
   40564:	e0fffe17 	ldw	r3,-8(fp)
   40568:	e0bffb17 	ldw	r2,-20(fp)
   4056c:	11000164 	muli	r4,r2,5
   40570:	e0bffc17 	ldw	r2,-16(fp)
   40574:	2085883a 	add	r2,r4,r2
   40578:	10806704 	addi	r2,r2,412
   4057c:	1085883a 	add	r2,r2,r2
   40580:	1085883a 	add	r2,r2,r2
   40584:	1885883a 	add	r2,r3,r2
   40588:	10000015 	stw	zero,0(r2)
            recon->s2_hist[i][j] = 0.0f;
   4058c:	e0fffe17 	ldw	r3,-8(fp)
   40590:	e0bffb17 	ldw	r2,-20(fp)
   40594:	11000164 	muli	r4,r2,5
   40598:	e0bffc17 	ldw	r2,-16(fp)
   4059c:	2085883a 	add	r2,r4,r2
   405a0:	1080e404 	addi	r2,r2,912
   405a4:	1085883a 	add	r2,r2,r2
   405a8:	1085883a 	add	r2,r2,r2
   405ac:	1885883a 	add	r2,r3,r2
   405b0:	10000015 	stw	zero,0(r2)
        	recon->in_hist[i][j] = 0.0f;
   405b4:	e0fffe17 	ldw	r3,-8(fp)
   405b8:	e0bffb17 	ldw	r2,-20(fp)
   405bc:	11000164 	muli	r4,r2,5
   405c0:	e0bffc17 	ldw	r2,-16(fp)
   405c4:	2085883a 	add	r2,r4,r2
   405c8:	10816104 	addi	r2,r2,1412
   405cc:	1085883a 	add	r2,r2,r2
   405d0:	1085883a 	add	r2,r2,r2
   405d4:	1885883a 	add	r2,r3,r2
   405d8:	10000015 	stw	zero,0(r2)
    }
    for (int i = 0; i < MAX_ORDER; ++i) {
        recon->s1[i] = 0.0f;
        recon->s2[i] = 0.0f;
        recon->res_index[i] = 0;
        for (int j = 0; j < MAX_J; ++j){
   405dc:	e0bffc17 	ldw	r2,-16(fp)
   405e0:	10800044 	addi	r2,r2,1
   405e4:	e0bffc15 	stw	r2,-16(fp)
   405e8:	e0bffc17 	ldw	r2,-16(fp)
   405ec:	10800150 	cmplti	r2,r2,5
   405f0:	103fdc1e 	bne	r2,zero,40564 <__alt_data_end+0xfffd9464>

    for (int i = 0; i < MAX_ORDER+1; i++) {
        recon->diff_buffer[i] = 0.0;
        recon->anti_diff_buffer[i] = 0.0;
    }
    for (int i = 0; i < MAX_ORDER; ++i) {
   405f4:	e0bffb17 	ldw	r2,-20(fp)
   405f8:	10800044 	addi	r2,r2,1
   405fc:	e0bffb15 	stw	r2,-20(fp)
   40600:	e0bffb17 	ldw	r2,-20(fp)
   40604:	10801910 	cmplti	r2,r2,100
   40608:	103fbf1e 	bne	r2,zero,40508 <__alt_data_end+0xfffd9408>
        	recon->s1_hist[i][j] = 0.0f;
            recon->s2_hist[i][j] = 0.0f;
        	recon->in_hist[i][j] = 0.0f;
    }
    }
    for (int i = 0; i <= MAX_ORDER; ++i)
   4060c:	e03ffd15 	stw	zero,-12(fp)
   40610:	00000a06 	br	4063c <initReconstructor+0x208>
        recon->anti_diff_buffer[i] = 0.0f;
   40614:	e0fffe17 	ldw	r3,-8(fp)
   40618:	e0bffd17 	ldw	r2,-12(fp)
   4061c:	10801b44 	addi	r2,r2,109
   40620:	1085883a 	add	r2,r2,r2
   40624:	1085883a 	add	r2,r2,r2
   40628:	1885883a 	add	r2,r3,r2
   4062c:	10000015 	stw	zero,0(r2)
        	recon->s1_hist[i][j] = 0.0f;
            recon->s2_hist[i][j] = 0.0f;
        	recon->in_hist[i][j] = 0.0f;
    }
    }
    for (int i = 0; i <= MAX_ORDER; ++i)
   40630:	e0bffd17 	ldw	r2,-12(fp)
   40634:	10800044 	addi	r2,r2,1
   40638:	e0bffd15 	stw	r2,-12(fp)
   4063c:	e0bffd17 	ldw	r2,-12(fp)
   40640:	10801950 	cmplti	r2,r2,101
   40644:	103ff31e 	bne	r2,zero,40614 <__alt_data_end+0xfffd9514>
        recon->anti_diff_buffer[i] = 0.0f;


}
   40648:	0001883a 	nop
   4064c:	e037883a 	mov	sp,fp
   40650:	df000017 	ldw	fp,0(sp)
   40654:	dec00104 	addi	sp,sp,4
   40658:	f800283a 	ret

0004065c <nth_order_difference>:
float nth_order_difference(float new_sample,UnlimitedSamplerReconstructor *recon) {
   4065c:	defff804 	addi	sp,sp,-32
   40660:	dfc00715 	stw	ra,28(sp)
   40664:	df000615 	stw	fp,24(sp)
   40668:	df000604 	addi	fp,sp,24
   4066c:	e13ffe15 	stw	r4,-8(fp)
   40670:	e17fff15 	stw	r5,-4(fp)
	float x = new_sample;
   40674:	e0bffe17 	ldw	r2,-8(fp)
   40678:	e0bffa15 	stw	r2,-24(fp)
	if (recon->diff_reset >0){
   4067c:	e0bfff17 	ldw	r2,-4(fp)
   40680:	10800617 	ldw	r2,24(r2)
   40684:	0080130e 	bge	zero,r2,406d4 <nth_order_difference+0x78>
		for (int i = 0; i <= recon->order; ++i){
   40688:	e03ffb15 	stw	zero,-20(fp)
   4068c:	00000a06 	br	406b8 <nth_order_difference+0x5c>
		recon->diff_buffer[i]=0;
   40690:	e0ffff17 	ldw	r3,-4(fp)
   40694:	e0bffb17 	ldw	r2,-20(fp)
   40698:	10800204 	addi	r2,r2,8
   4069c:	1085883a 	add	r2,r2,r2
   406a0:	1085883a 	add	r2,r2,r2
   406a4:	1885883a 	add	r2,r3,r2
   406a8:	10000015 	stw	zero,0(r2)

}
float nth_order_difference(float new_sample,UnlimitedSamplerReconstructor *recon) {
	float x = new_sample;
	if (recon->diff_reset >0){
		for (int i = 0; i <= recon->order; ++i){
   406ac:	e0bffb17 	ldw	r2,-20(fp)
   406b0:	10800044 	addi	r2,r2,1
   406b4:	e0bffb15 	stw	r2,-20(fp)
   406b8:	e0bfff17 	ldw	r2,-4(fp)
   406bc:	10c00517 	ldw	r3,20(r2)
   406c0:	e0bffb17 	ldw	r2,-20(fp)
   406c4:	18bff20e 	bge	r3,r2,40690 <__alt_data_end+0xfffd9590>
		recon->diff_buffer[i]=0;

		}
		recon->diff_reset=0;
   406c8:	e0bfff17 	ldw	r2,-4(fp)
   406cc:	10000615 	stw	zero,24(r2)
   406d0:	00001f06 	br	40750 <nth_order_difference+0xf4>
	}else
	{
		for (int i = 0; i <= recon->order; ++i) {
   406d4:	e03ffc15 	stw	zero,-16(fp)
   406d8:	00001906 	br	40740 <nth_order_difference+0xe4>
			float delta = x - recon->diff_buffer[i];
   406dc:	e0ffff17 	ldw	r3,-4(fp)
   406e0:	e0bffc17 	ldw	r2,-16(fp)
   406e4:	10800204 	addi	r2,r2,8
   406e8:	1085883a 	add	r2,r2,r2
   406ec:	1085883a 	add	r2,r2,r2
   406f0:	1885883a 	add	r2,r3,r2
   406f4:	10c00017 	ldw	r3,0(r2)
   406f8:	180b883a 	mov	r5,r3
   406fc:	e13ffa17 	ldw	r4,-24(fp)
   40700:	00441bc0 	call	441bc <__subsf3>
   40704:	1007883a 	mov	r3,r2
   40708:	e0fffd15 	stw	r3,-12(fp)
			recon->diff_buffer[i] = x;
   4070c:	e0ffff17 	ldw	r3,-4(fp)
   40710:	e0bffc17 	ldw	r2,-16(fp)
   40714:	10800204 	addi	r2,r2,8
   40718:	1085883a 	add	r2,r2,r2
   4071c:	1085883a 	add	r2,r2,r2
   40720:	1885883a 	add	r2,r3,r2
   40724:	e0fffa17 	ldw	r3,-24(fp)
   40728:	10c00015 	stw	r3,0(r2)
			x = delta;
   4072c:	e0bffd17 	ldw	r2,-12(fp)
   40730:	e0bffa15 	stw	r2,-24(fp)

		}
		recon->diff_reset=0;
	}else
	{
		for (int i = 0; i <= recon->order; ++i) {
   40734:	e0bffc17 	ldw	r2,-16(fp)
   40738:	10800044 	addi	r2,r2,1
   4073c:	e0bffc15 	stw	r2,-16(fp)
   40740:	e0bfff17 	ldw	r2,-4(fp)
   40744:	10c00517 	ldw	r3,20(r2)
   40748:	e0bffc17 	ldw	r2,-16(fp)
   4074c:	18bfe30e 	bge	r3,r2,406dc <__alt_data_end+0xfffd95dc>
			recon->diff_buffer[i] = x;
			x = delta;
	//        }
		}
	}
    return recon->diff_buffer[recon->order];
   40750:	e0bfff17 	ldw	r2,-4(fp)
   40754:	10800517 	ldw	r2,20(r2)
   40758:	e0ffff17 	ldw	r3,-4(fp)
   4075c:	10800204 	addi	r2,r2,8
   40760:	1085883a 	add	r2,r2,r2
   40764:	1085883a 	add	r2,r2,r2
   40768:	1885883a 	add	r2,r3,r2
   4076c:	10c00017 	ldw	r3,0(r2)
   40770:	1805883a 	mov	r2,r3
}
   40774:	e037883a 	mov	sp,fp
   40778:	dfc00117 	ldw	ra,4(sp)
   4077c:	df000017 	ldw	fp,0(sp)
   40780:	dec00204 	addi	sp,sp,8
   40784:	f800283a 	ret

00040788 <anti_diff_nth>:

float anti_diff_nth(float diffN,UnlimitedSamplerReconstructor *recon) {
   40788:	defff604 	addi	sp,sp,-40
   4078c:	dfc00915 	stw	ra,36(sp)
   40790:	df000815 	stw	fp,32(sp)
   40794:	dcc00715 	stw	r19,28(sp)
   40798:	dc800615 	stw	r18,24(sp)
   4079c:	dc400515 	stw	r17,20(sp)
   407a0:	dc000415 	stw	r16,16(sp)
   407a4:	df000804 	addi	fp,sp,32
   407a8:	e13ffa15 	stw	r4,-24(fp)
   407ac:	e17ffb15 	stw	r5,-20(fp)
	float x = diffN;  // the N-th difference input ([k])
   407b0:	e0bffa17 	ldw	r2,-24(fp)
   407b4:	e0bff815 	stw	r2,-32(fp)

	for (int i = 0; i < recon->order-1; ++i) {
   407b8:	e03ff915 	stw	zero,-28(fp)
   407bc:	00005506 	br	40914 <anti_diff_nth+0x18c>
//		int idx = recon->res_index[i] % recon->J;
	    // 1. Integrate current level
	    x = recon->anti_diff_buffer[i] + x;
   407c0:	e0fffb17 	ldw	r3,-20(fp)
   407c4:	e0bff917 	ldw	r2,-28(fp)
   407c8:	10801b44 	addi	r2,r2,109
   407cc:	1085883a 	add	r2,r2,r2
   407d0:	1085883a 	add	r2,r2,r2
   407d4:	1885883a 	add	r2,r3,r2
   407d8:	10c00017 	ldw	r3,0(r2)
   407dc:	180b883a 	mov	r5,r3
   407e0:	e13ff817 	ldw	r4,-32(fp)
   407e4:	00433340 	call	43334 <__addsf3>
   407e8:	1007883a 	mov	r3,r2
   407ec:	e0fff815 	stw	r3,-32(fp)
	    x=2.0 * recon->lam * round(x / (2.0 * recon->lam));
   407f0:	e0bffb17 	ldw	r2,-20(fp)
   407f4:	10c00017 	ldw	r3,0(r2)
   407f8:	1809883a 	mov	r4,r3
   407fc:	0046c9c0 	call	46c9c <__extendsfdf2>
   40800:	1011883a 	mov	r8,r2
   40804:	1813883a 	mov	r9,r3
   40808:	400d883a 	mov	r6,r8
   4080c:	480f883a 	mov	r7,r9
   40810:	4009883a 	mov	r4,r8
   40814:	480b883a 	mov	r5,r9
   40818:	00448340 	call	44834 <__adddf3>
   4081c:	1009883a 	mov	r4,r2
   40820:	180b883a 	mov	r5,r3
   40824:	2021883a 	mov	r16,r4
   40828:	2823883a 	mov	r17,r5
   4082c:	e13ff817 	ldw	r4,-32(fp)
   40830:	0046c9c0 	call	46c9c <__extendsfdf2>
   40834:	1025883a 	mov	r18,r2
   40838:	1827883a 	mov	r19,r3
   4083c:	e0bffb17 	ldw	r2,-20(fp)
   40840:	10c00017 	ldw	r3,0(r2)
   40844:	1809883a 	mov	r4,r3
   40848:	0046c9c0 	call	46c9c <__extendsfdf2>
   4084c:	1011883a 	mov	r8,r2
   40850:	1813883a 	mov	r9,r3
   40854:	400d883a 	mov	r6,r8
   40858:	480f883a 	mov	r7,r9
   4085c:	4009883a 	mov	r4,r8
   40860:	480b883a 	mov	r5,r9
   40864:	00448340 	call	44834 <__adddf3>
   40868:	1009883a 	mov	r4,r2
   4086c:	180b883a 	mov	r5,r3
   40870:	2005883a 	mov	r2,r4
   40874:	2807883a 	mov	r3,r5
   40878:	100d883a 	mov	r6,r2
   4087c:	180f883a 	mov	r7,r3
   40880:	9009883a 	mov	r4,r18
   40884:	980b883a 	mov	r5,r19
   40888:	00450e00 	call	450e0 <__divdf3>
   4088c:	1009883a 	mov	r4,r2
   40890:	180b883a 	mov	r5,r3
   40894:	2005883a 	mov	r2,r4
   40898:	2807883a 	mov	r3,r5
   4089c:	1009883a 	mov	r4,r2
   408a0:	180b883a 	mov	r5,r3
   408a4:	00421c40 	call	421c4 <round>
   408a8:	1009883a 	mov	r4,r2
   408ac:	180b883a 	mov	r5,r3
   408b0:	200d883a 	mov	r6,r4
   408b4:	280f883a 	mov	r7,r5
   408b8:	8009883a 	mov	r4,r16
   408bc:	880b883a 	mov	r5,r17
   408c0:	0045b2c0 	call	45b2c <__muldf3>
   408c4:	1009883a 	mov	r4,r2
   408c8:	180b883a 	mov	r5,r3
   408cc:	2005883a 	mov	r2,r4
   408d0:	2807883a 	mov	r3,r5
   408d4:	1009883a 	mov	r4,r2
   408d8:	180b883a 	mov	r5,r3
   408dc:	0046dac0 	call	46dac <__truncdfsf2>
   408e0:	1007883a 	mov	r3,r2
   408e4:	e0fff815 	stw	r3,-32(fp)
//	    x+=2*recon->lam*(6*recon->max_in/recon->lam+1);
	    recon->anti_diff_buffer[i] = x;
   408e8:	e0fffb17 	ldw	r3,-20(fp)
   408ec:	e0bff917 	ldw	r2,-28(fp)
   408f0:	10801b44 	addi	r2,r2,109
   408f4:	1085883a 	add	r2,r2,r2
   408f8:	1085883a 	add	r2,r2,r2
   408fc:	1885883a 	add	r2,r3,r2
   40900:	e0fff817 	ldw	r3,-32(fp)
   40904:	10c00015 	stw	r3,0(r2)
}

float anti_diff_nth(float diffN,UnlimitedSamplerReconstructor *recon) {
	float x = diffN;  // the N-th difference input ([k])

	for (int i = 0; i < recon->order-1; ++i) {
   40908:	e0bff917 	ldw	r2,-28(fp)
   4090c:	10800044 	addi	r2,r2,1
   40910:	e0bff915 	stw	r2,-28(fp)
   40914:	e0bffb17 	ldw	r2,-20(fp)
   40918:	10800517 	ldw	r2,20(r2)
   4091c:	10bfffc4 	addi	r2,r2,-1
   40920:	e0fff917 	ldw	r3,-28(fp)
   40924:	18bfa616 	blt	r3,r2,407c0 <__alt_data_end+0xfffd96c0>
//	    printf("anti_diff_buffer at layer %d= %f.\n", i,recon->anti_diff_buffer[i] );

	}

	// Final integration
	x = recon->anti_diff_buffer[recon->order-1] + x;
   40928:	e0bffb17 	ldw	r2,-20(fp)
   4092c:	10800517 	ldw	r2,20(r2)
   40930:	10bfffc4 	addi	r2,r2,-1
   40934:	e0fffb17 	ldw	r3,-20(fp)
   40938:	10801b44 	addi	r2,r2,109
   4093c:	1085883a 	add	r2,r2,r2
   40940:	1085883a 	add	r2,r2,r2
   40944:	1885883a 	add	r2,r3,r2
   40948:	10c00017 	ldw	r3,0(r2)
   4094c:	180b883a 	mov	r5,r3
   40950:	e13ff817 	ldw	r4,-32(fp)
   40954:	00433340 	call	43334 <__addsf3>
   40958:	1007883a 	mov	r3,r2
   4095c:	e0fff815 	stw	r3,-32(fp)
	recon->anti_diff_buffer[recon->order-1] = x;
   40960:	e0bffb17 	ldw	r2,-20(fp)
   40964:	10800517 	ldw	r2,20(r2)
   40968:	10bfffc4 	addi	r2,r2,-1
   4096c:	e0fffb17 	ldw	r3,-20(fp)
   40970:	10801b44 	addi	r2,r2,109
   40974:	1085883a 	add	r2,r2,r2
   40978:	1085883a 	add	r2,r2,r2
   4097c:	1885883a 	add	r2,r3,r2
   40980:	e0fff817 	ldw	r3,-32(fp)
   40984:	10c00015 	stw	r3,0(r2)

	return x;  // final reconstructed sample g[k]
   40988:	e0bff817 	ldw	r2,-32(fp)
   4098c:	1007883a 	mov	r3,r2
}
   40990:	1805883a 	mov	r2,r3
   40994:	e6fffc04 	addi	sp,fp,-16
   40998:	dfc00517 	ldw	ra,20(sp)
   4099c:	df000417 	ldw	fp,16(sp)
   409a0:	dcc00317 	ldw	r19,12(sp)
   409a4:	dc800217 	ldw	r18,8(sp)
   409a8:	dc400117 	ldw	r17,4(sp)
   409ac:	dc000017 	ldw	r16,0(sp)
   409b0:	dec00604 	addi	sp,sp,24
   409b4:	f800283a 	ret

000409b8 <anti_diff_3rd>:

float anti_diff_3rd(float diffN,UnlimitedSamplerReconstructor *recon, MovingAverage *ma1,MovingAverage *ma2, MovingAverage *ma3) {
   409b8:	defff204 	addi	sp,sp,-56
   409bc:	dfc00d15 	stw	ra,52(sp)
   409c0:	df000c15 	stw	fp,48(sp)
   409c4:	dcc00b15 	stw	r19,44(sp)
   409c8:	dc800a15 	stw	r18,40(sp)
   409cc:	dc400915 	stw	r17,36(sp)
   409d0:	dc000815 	stw	r16,32(sp)
   409d4:	df000c04 	addi	fp,sp,48
   409d8:	e13ff815 	stw	r4,-32(fp)
   409dc:	e17ff915 	stw	r5,-28(fp)
   409e0:	e1bffa15 	stw	r6,-24(fp)
   409e4:	e1fffb15 	stw	r7,-20(fp)
	float x = diffN;  // the N-th difference input ([k])
   409e8:	e0bff817 	ldw	r2,-32(fp)
   409ec:	e0bff415 	stw	r2,-48(fp)

	x = recon->anti_diff_buffer[0] + x;
   409f0:	e0bff917 	ldw	r2,-28(fp)
   409f4:	10c06d17 	ldw	r3,436(r2)
   409f8:	180b883a 	mov	r5,r3
   409fc:	e13ff417 	ldw	r4,-48(fp)
   40a00:	00433340 	call	43334 <__addsf3>
   40a04:	1007883a 	mov	r3,r2
   40a08:	e0fff415 	stw	r3,-48(fp)
	x=2.0 * recon->lam * round(x / (2.0 * recon->lam));
   40a0c:	e0bff917 	ldw	r2,-28(fp)
   40a10:	10c00017 	ldw	r3,0(r2)
   40a14:	1809883a 	mov	r4,r3
   40a18:	0046c9c0 	call	46c9c <__extendsfdf2>
   40a1c:	1011883a 	mov	r8,r2
   40a20:	1813883a 	mov	r9,r3
   40a24:	400d883a 	mov	r6,r8
   40a28:	480f883a 	mov	r7,r9
   40a2c:	4009883a 	mov	r4,r8
   40a30:	480b883a 	mov	r5,r9
   40a34:	00448340 	call	44834 <__adddf3>
   40a38:	1009883a 	mov	r4,r2
   40a3c:	180b883a 	mov	r5,r3
   40a40:	2021883a 	mov	r16,r4
   40a44:	2823883a 	mov	r17,r5
   40a48:	e13ff417 	ldw	r4,-48(fp)
   40a4c:	0046c9c0 	call	46c9c <__extendsfdf2>
   40a50:	1025883a 	mov	r18,r2
   40a54:	1827883a 	mov	r19,r3
   40a58:	e0bff917 	ldw	r2,-28(fp)
   40a5c:	10c00017 	ldw	r3,0(r2)
   40a60:	1809883a 	mov	r4,r3
   40a64:	0046c9c0 	call	46c9c <__extendsfdf2>
   40a68:	1011883a 	mov	r8,r2
   40a6c:	1813883a 	mov	r9,r3
   40a70:	400d883a 	mov	r6,r8
   40a74:	480f883a 	mov	r7,r9
   40a78:	4009883a 	mov	r4,r8
   40a7c:	480b883a 	mov	r5,r9
   40a80:	00448340 	call	44834 <__adddf3>
   40a84:	1009883a 	mov	r4,r2
   40a88:	180b883a 	mov	r5,r3
   40a8c:	2005883a 	mov	r2,r4
   40a90:	2807883a 	mov	r3,r5
   40a94:	100d883a 	mov	r6,r2
   40a98:	180f883a 	mov	r7,r3
   40a9c:	9009883a 	mov	r4,r18
   40aa0:	980b883a 	mov	r5,r19
   40aa4:	00450e00 	call	450e0 <__divdf3>
   40aa8:	1009883a 	mov	r4,r2
   40aac:	180b883a 	mov	r5,r3
   40ab0:	2005883a 	mov	r2,r4
   40ab4:	2807883a 	mov	r3,r5
   40ab8:	1009883a 	mov	r4,r2
   40abc:	180b883a 	mov	r5,r3
   40ac0:	00421c40 	call	421c4 <round>
   40ac4:	1009883a 	mov	r4,r2
   40ac8:	180b883a 	mov	r5,r3
   40acc:	200d883a 	mov	r6,r4
   40ad0:	280f883a 	mov	r7,r5
   40ad4:	8009883a 	mov	r4,r16
   40ad8:	880b883a 	mov	r5,r17
   40adc:	0045b2c0 	call	45b2c <__muldf3>
   40ae0:	1009883a 	mov	r4,r2
   40ae4:	180b883a 	mov	r5,r3
   40ae8:	2005883a 	mov	r2,r4
   40aec:	2807883a 	mov	r3,r5
   40af0:	1009883a 	mov	r4,r2
   40af4:	180b883a 	mov	r5,r3
   40af8:	0046dac0 	call	46dac <__truncdfsf2>
   40afc:	1007883a 	mov	r3,r2
   40b00:	e0fff415 	stw	r3,-48(fp)
	float avg1 = updateMovingAverage(ma1, x);
   40b04:	e17ff417 	ldw	r5,-48(fp)
   40b08:	e13ffa17 	ldw	r4,-24(fp)
   40b0c:	00403040 	call	40304 <updateMovingAverage>
   40b10:	e0bff515 	stw	r2,-44(fp)

	recon->anti_diff_buffer[0] = x;
   40b14:	e0bff917 	ldw	r2,-28(fp)
   40b18:	e0fff417 	ldw	r3,-48(fp)
   40b1c:	10c06d15 	stw	r3,436(r2)

	x=x-avg1;
   40b20:	e17ff517 	ldw	r5,-44(fp)
   40b24:	e13ff417 	ldw	r4,-48(fp)
   40b28:	00441bc0 	call	441bc <__subsf3>
   40b2c:	1007883a 	mov	r3,r2
   40b30:	e0fff415 	stw	r3,-48(fp)

	x = recon->anti_diff_buffer[1] + x;
   40b34:	e0bff917 	ldw	r2,-28(fp)
   40b38:	10c06e17 	ldw	r3,440(r2)
   40b3c:	180b883a 	mov	r5,r3
   40b40:	e13ff417 	ldw	r4,-48(fp)
   40b44:	00433340 	call	43334 <__addsf3>
   40b48:	1007883a 	mov	r3,r2
   40b4c:	e0fff415 	stw	r3,-48(fp)
	x=2.0 * recon->lam * round(x / (2.0 * recon->lam));
   40b50:	e0bff917 	ldw	r2,-28(fp)
   40b54:	10c00017 	ldw	r3,0(r2)
   40b58:	1809883a 	mov	r4,r3
   40b5c:	0046c9c0 	call	46c9c <__extendsfdf2>
   40b60:	1011883a 	mov	r8,r2
   40b64:	1813883a 	mov	r9,r3
   40b68:	400d883a 	mov	r6,r8
   40b6c:	480f883a 	mov	r7,r9
   40b70:	4009883a 	mov	r4,r8
   40b74:	480b883a 	mov	r5,r9
   40b78:	00448340 	call	44834 <__adddf3>
   40b7c:	1009883a 	mov	r4,r2
   40b80:	180b883a 	mov	r5,r3
   40b84:	2021883a 	mov	r16,r4
   40b88:	2823883a 	mov	r17,r5
   40b8c:	e13ff417 	ldw	r4,-48(fp)
   40b90:	0046c9c0 	call	46c9c <__extendsfdf2>
   40b94:	1025883a 	mov	r18,r2
   40b98:	1827883a 	mov	r19,r3
   40b9c:	e0bff917 	ldw	r2,-28(fp)
   40ba0:	10c00017 	ldw	r3,0(r2)
   40ba4:	1809883a 	mov	r4,r3
   40ba8:	0046c9c0 	call	46c9c <__extendsfdf2>
   40bac:	1011883a 	mov	r8,r2
   40bb0:	1813883a 	mov	r9,r3
   40bb4:	400d883a 	mov	r6,r8
   40bb8:	480f883a 	mov	r7,r9
   40bbc:	4009883a 	mov	r4,r8
   40bc0:	480b883a 	mov	r5,r9
   40bc4:	00448340 	call	44834 <__adddf3>
   40bc8:	1009883a 	mov	r4,r2
   40bcc:	180b883a 	mov	r5,r3
   40bd0:	2005883a 	mov	r2,r4
   40bd4:	2807883a 	mov	r3,r5
   40bd8:	100d883a 	mov	r6,r2
   40bdc:	180f883a 	mov	r7,r3
   40be0:	9009883a 	mov	r4,r18
   40be4:	980b883a 	mov	r5,r19
   40be8:	00450e00 	call	450e0 <__divdf3>
   40bec:	1009883a 	mov	r4,r2
   40bf0:	180b883a 	mov	r5,r3
   40bf4:	2005883a 	mov	r2,r4
   40bf8:	2807883a 	mov	r3,r5
   40bfc:	1009883a 	mov	r4,r2
   40c00:	180b883a 	mov	r5,r3
   40c04:	00421c40 	call	421c4 <round>
   40c08:	1009883a 	mov	r4,r2
   40c0c:	180b883a 	mov	r5,r3
   40c10:	200d883a 	mov	r6,r4
   40c14:	280f883a 	mov	r7,r5
   40c18:	8009883a 	mov	r4,r16
   40c1c:	880b883a 	mov	r5,r17
   40c20:	0045b2c0 	call	45b2c <__muldf3>
   40c24:	1009883a 	mov	r4,r2
   40c28:	180b883a 	mov	r5,r3
   40c2c:	2005883a 	mov	r2,r4
   40c30:	2807883a 	mov	r3,r5
   40c34:	1009883a 	mov	r4,r2
   40c38:	180b883a 	mov	r5,r3
   40c3c:	0046dac0 	call	46dac <__truncdfsf2>
   40c40:	1007883a 	mov	r3,r2
   40c44:	e0fff415 	stw	r3,-48(fp)
	float avg2 = updateMovingAverage(ma2, x);
   40c48:	e17ff417 	ldw	r5,-48(fp)
   40c4c:	e13ffb17 	ldw	r4,-20(fp)
   40c50:	00403040 	call	40304 <updateMovingAverage>
   40c54:	e0bff615 	stw	r2,-40(fp)

	recon->anti_diff_buffer[1] = x;
   40c58:	e0bff917 	ldw	r2,-28(fp)
   40c5c:	e0fff417 	ldw	r3,-48(fp)
   40c60:	10c06e15 	stw	r3,440(r2)
	x=x-avg2;
   40c64:	e17ff617 	ldw	r5,-40(fp)
   40c68:	e13ff417 	ldw	r4,-48(fp)
   40c6c:	00441bc0 	call	441bc <__subsf3>
   40c70:	1007883a 	mov	r3,r2
   40c74:	e0fff415 	stw	r3,-48(fp)


	// Final integration
	x = recon->anti_diff_buffer[recon->order-1] + x;
   40c78:	e0bff917 	ldw	r2,-28(fp)
   40c7c:	10800517 	ldw	r2,20(r2)
   40c80:	10bfffc4 	addi	r2,r2,-1
   40c84:	e0fff917 	ldw	r3,-28(fp)
   40c88:	10801b44 	addi	r2,r2,109
   40c8c:	1085883a 	add	r2,r2,r2
   40c90:	1085883a 	add	r2,r2,r2
   40c94:	1885883a 	add	r2,r3,r2
   40c98:	10c00017 	ldw	r3,0(r2)
   40c9c:	180b883a 	mov	r5,r3
   40ca0:	e13ff417 	ldw	r4,-48(fp)
   40ca4:	00433340 	call	43334 <__addsf3>
   40ca8:	1007883a 	mov	r3,r2
   40cac:	e0fff415 	stw	r3,-48(fp)
	x=2.0 * recon->lam * round(x / (2.0 * recon->lam));
   40cb0:	e0bff917 	ldw	r2,-28(fp)
   40cb4:	10c00017 	ldw	r3,0(r2)
   40cb8:	1809883a 	mov	r4,r3
   40cbc:	0046c9c0 	call	46c9c <__extendsfdf2>
   40cc0:	1011883a 	mov	r8,r2
   40cc4:	1813883a 	mov	r9,r3
   40cc8:	400d883a 	mov	r6,r8
   40ccc:	480f883a 	mov	r7,r9
   40cd0:	4009883a 	mov	r4,r8
   40cd4:	480b883a 	mov	r5,r9
   40cd8:	00448340 	call	44834 <__adddf3>
   40cdc:	1009883a 	mov	r4,r2
   40ce0:	180b883a 	mov	r5,r3
   40ce4:	2021883a 	mov	r16,r4
   40ce8:	2823883a 	mov	r17,r5
   40cec:	e13ff417 	ldw	r4,-48(fp)
   40cf0:	0046c9c0 	call	46c9c <__extendsfdf2>
   40cf4:	1025883a 	mov	r18,r2
   40cf8:	1827883a 	mov	r19,r3
   40cfc:	e0bff917 	ldw	r2,-28(fp)
   40d00:	10c00017 	ldw	r3,0(r2)
   40d04:	1809883a 	mov	r4,r3
   40d08:	0046c9c0 	call	46c9c <__extendsfdf2>
   40d0c:	1011883a 	mov	r8,r2
   40d10:	1813883a 	mov	r9,r3
   40d14:	400d883a 	mov	r6,r8
   40d18:	480f883a 	mov	r7,r9
   40d1c:	4009883a 	mov	r4,r8
   40d20:	480b883a 	mov	r5,r9
   40d24:	00448340 	call	44834 <__adddf3>
   40d28:	1009883a 	mov	r4,r2
   40d2c:	180b883a 	mov	r5,r3
   40d30:	2005883a 	mov	r2,r4
   40d34:	2807883a 	mov	r3,r5
   40d38:	100d883a 	mov	r6,r2
   40d3c:	180f883a 	mov	r7,r3
   40d40:	9009883a 	mov	r4,r18
   40d44:	980b883a 	mov	r5,r19
   40d48:	00450e00 	call	450e0 <__divdf3>
   40d4c:	1009883a 	mov	r4,r2
   40d50:	180b883a 	mov	r5,r3
   40d54:	2005883a 	mov	r2,r4
   40d58:	2807883a 	mov	r3,r5
   40d5c:	1009883a 	mov	r4,r2
   40d60:	180b883a 	mov	r5,r3
   40d64:	00421c40 	call	421c4 <round>
   40d68:	1009883a 	mov	r4,r2
   40d6c:	180b883a 	mov	r5,r3
   40d70:	200d883a 	mov	r6,r4
   40d74:	280f883a 	mov	r7,r5
   40d78:	8009883a 	mov	r4,r16
   40d7c:	880b883a 	mov	r5,r17
   40d80:	0045b2c0 	call	45b2c <__muldf3>
   40d84:	1009883a 	mov	r4,r2
   40d88:	180b883a 	mov	r5,r3
   40d8c:	2005883a 	mov	r2,r4
   40d90:	2807883a 	mov	r3,r5
   40d94:	1009883a 	mov	r4,r2
   40d98:	180b883a 	mov	r5,r3
   40d9c:	0046dac0 	call	46dac <__truncdfsf2>
   40da0:	1007883a 	mov	r3,r2
   40da4:	e0fff415 	stw	r3,-48(fp)

	recon->anti_diff_buffer[recon->order-1] = x;
   40da8:	e0bff917 	ldw	r2,-28(fp)
   40dac:	10800517 	ldw	r2,20(r2)
   40db0:	10bfffc4 	addi	r2,r2,-1
   40db4:	e0fff917 	ldw	r3,-28(fp)
   40db8:	10801b44 	addi	r2,r2,109
   40dbc:	1085883a 	add	r2,r2,r2
   40dc0:	1085883a 	add	r2,r2,r2
   40dc4:	1885883a 	add	r2,r3,r2
   40dc8:	e0fff417 	ldw	r3,-48(fp)
   40dcc:	10c00015 	stw	r3,0(r2)
	float avg3 = updateMovingAverage(ma3, x);
   40dd0:	e17ff417 	ldw	r5,-48(fp)
   40dd4:	e1000217 	ldw	r4,8(fp)
   40dd8:	00403040 	call	40304 <updateMovingAverage>
   40ddc:	e0bff715 	stw	r2,-36(fp)
//	x = hpf_update(hpf, x);
	x=x-avg3;
   40de0:	e17ff717 	ldw	r5,-36(fp)
   40de4:	e13ff417 	ldw	r4,-48(fp)
   40de8:	00441bc0 	call	441bc <__subsf3>
   40dec:	1007883a 	mov	r3,r2
   40df0:	e0fff415 	stw	r3,-48(fp)

	return x;  // final reconstructed sample g[k]
   40df4:	e0bff417 	ldw	r2,-48(fp)
   40df8:	1007883a 	mov	r3,r2
}
   40dfc:	1805883a 	mov	r2,r3
   40e00:	e6fffc04 	addi	sp,fp,-16
   40e04:	dfc00517 	ldw	ra,20(sp)
   40e08:	df000417 	ldw	fp,16(sp)
   40e0c:	dcc00317 	ldw	r19,12(sp)
   40e10:	dc800217 	ldw	r18,8(sp)
   40e14:	dc400117 	ldw	r17,4(sp)
   40e18:	dc000017 	ldw	r16,0(sp)
   40e1c:	dec00604 	addi	sp,sp,24
   40e20:	f800283a 	ret

00040e24 <anti_diff_2nd>:
float anti_diff_2nd(float diffN,UnlimitedSamplerReconstructor *recon, MovingAverage *ma1,MovingAverage *ma2, MovingAverage *ma3) {
   40e24:	defff304 	addi	sp,sp,-52
   40e28:	dfc00c15 	stw	ra,48(sp)
   40e2c:	df000b15 	stw	fp,44(sp)
   40e30:	dcc00a15 	stw	r19,40(sp)
   40e34:	dc800915 	stw	r18,36(sp)
   40e38:	dc400815 	stw	r17,32(sp)
   40e3c:	dc000715 	stw	r16,28(sp)
   40e40:	df000b04 	addi	fp,sp,44
   40e44:	e13ff815 	stw	r4,-32(fp)
   40e48:	e17ff915 	stw	r5,-28(fp)
   40e4c:	e1bffa15 	stw	r6,-24(fp)
   40e50:	e1fffb15 	stw	r7,-20(fp)
	float x = diffN;  // the N-th difference input ([k])
   40e54:	e0bff817 	ldw	r2,-32(fp)
   40e58:	e0bff515 	stw	r2,-44(fp)
	x=2.0 * recon->lam * round(x / (2.0 * recon->lam));
   40e5c:	e0bff917 	ldw	r2,-28(fp)
   40e60:	10c00017 	ldw	r3,0(r2)
   40e64:	1809883a 	mov	r4,r3
   40e68:	0046c9c0 	call	46c9c <__extendsfdf2>
   40e6c:	1011883a 	mov	r8,r2
   40e70:	1813883a 	mov	r9,r3
   40e74:	400d883a 	mov	r6,r8
   40e78:	480f883a 	mov	r7,r9
   40e7c:	4009883a 	mov	r4,r8
   40e80:	480b883a 	mov	r5,r9
   40e84:	00448340 	call	44834 <__adddf3>
   40e88:	1009883a 	mov	r4,r2
   40e8c:	180b883a 	mov	r5,r3
   40e90:	2021883a 	mov	r16,r4
   40e94:	2823883a 	mov	r17,r5
   40e98:	e13ff517 	ldw	r4,-44(fp)
   40e9c:	0046c9c0 	call	46c9c <__extendsfdf2>
   40ea0:	1025883a 	mov	r18,r2
   40ea4:	1827883a 	mov	r19,r3
   40ea8:	e0bff917 	ldw	r2,-28(fp)
   40eac:	10c00017 	ldw	r3,0(r2)
   40eb0:	1809883a 	mov	r4,r3
   40eb4:	0046c9c0 	call	46c9c <__extendsfdf2>
   40eb8:	1011883a 	mov	r8,r2
   40ebc:	1813883a 	mov	r9,r3
   40ec0:	400d883a 	mov	r6,r8
   40ec4:	480f883a 	mov	r7,r9
   40ec8:	4009883a 	mov	r4,r8
   40ecc:	480b883a 	mov	r5,r9
   40ed0:	00448340 	call	44834 <__adddf3>
   40ed4:	1009883a 	mov	r4,r2
   40ed8:	180b883a 	mov	r5,r3
   40edc:	2005883a 	mov	r2,r4
   40ee0:	2807883a 	mov	r3,r5
   40ee4:	100d883a 	mov	r6,r2
   40ee8:	180f883a 	mov	r7,r3
   40eec:	9009883a 	mov	r4,r18
   40ef0:	980b883a 	mov	r5,r19
   40ef4:	00450e00 	call	450e0 <__divdf3>
   40ef8:	1009883a 	mov	r4,r2
   40efc:	180b883a 	mov	r5,r3
   40f00:	2005883a 	mov	r2,r4
   40f04:	2807883a 	mov	r3,r5
   40f08:	1009883a 	mov	r4,r2
   40f0c:	180b883a 	mov	r5,r3
   40f10:	00421c40 	call	421c4 <round>
   40f14:	1009883a 	mov	r4,r2
   40f18:	180b883a 	mov	r5,r3
   40f1c:	200d883a 	mov	r6,r4
   40f20:	280f883a 	mov	r7,r5
   40f24:	8009883a 	mov	r4,r16
   40f28:	880b883a 	mov	r5,r17
   40f2c:	0045b2c0 	call	45b2c <__muldf3>
   40f30:	1009883a 	mov	r4,r2
   40f34:	180b883a 	mov	r5,r3
   40f38:	2005883a 	mov	r2,r4
   40f3c:	2807883a 	mov	r3,r5
   40f40:	1009883a 	mov	r4,r2
   40f44:	180b883a 	mov	r5,r3
   40f48:	0046dac0 	call	46dac <__truncdfsf2>
   40f4c:	1007883a 	mov	r3,r2
   40f50:	e0fff515 	stw	r3,-44(fp)

	x = recon->anti_diff_buffer[0] + x;
   40f54:	e0bff917 	ldw	r2,-28(fp)
   40f58:	10c06d17 	ldw	r3,436(r2)
   40f5c:	180b883a 	mov	r5,r3
   40f60:	e13ff517 	ldw	r4,-44(fp)
   40f64:	00433340 	call	43334 <__addsf3>
   40f68:	1007883a 	mov	r3,r2
   40f6c:	e0fff515 	stw	r3,-44(fp)





	recon->anti_diff_buffer[0] = x;
   40f70:	e0bff917 	ldw	r2,-28(fp)
   40f74:	e0fff517 	ldw	r3,-44(fp)
   40f78:	10c06d15 	stw	r3,436(r2)
	float avg1 = updateMovingAverage(ma1, x);
   40f7c:	e17ff517 	ldw	r5,-44(fp)
   40f80:	e13ffa17 	ldw	r4,-24(fp)
   40f84:	00403040 	call	40304 <updateMovingAverage>
   40f88:	e0bff615 	stw	r2,-40(fp)
	x=x-avg1;
   40f8c:	e17ff617 	ldw	r5,-40(fp)
   40f90:	e13ff517 	ldw	r4,-44(fp)
   40f94:	00441bc0 	call	441bc <__subsf3>
   40f98:	1007883a 	mov	r3,r2
   40f9c:	e0fff515 	stw	r3,-44(fp)



	// Final integration
	x=2.0 * recon->lam * round(x / (2.0 * recon->lam));
   40fa0:	e0bff917 	ldw	r2,-28(fp)
   40fa4:	10c00017 	ldw	r3,0(r2)
   40fa8:	1809883a 	mov	r4,r3
   40fac:	0046c9c0 	call	46c9c <__extendsfdf2>
   40fb0:	1011883a 	mov	r8,r2
   40fb4:	1813883a 	mov	r9,r3
   40fb8:	400d883a 	mov	r6,r8
   40fbc:	480f883a 	mov	r7,r9
   40fc0:	4009883a 	mov	r4,r8
   40fc4:	480b883a 	mov	r5,r9
   40fc8:	00448340 	call	44834 <__adddf3>
   40fcc:	1009883a 	mov	r4,r2
   40fd0:	180b883a 	mov	r5,r3
   40fd4:	2021883a 	mov	r16,r4
   40fd8:	2823883a 	mov	r17,r5
   40fdc:	e13ff517 	ldw	r4,-44(fp)
   40fe0:	0046c9c0 	call	46c9c <__extendsfdf2>
   40fe4:	1025883a 	mov	r18,r2
   40fe8:	1827883a 	mov	r19,r3
   40fec:	e0bff917 	ldw	r2,-28(fp)
   40ff0:	10c00017 	ldw	r3,0(r2)
   40ff4:	1809883a 	mov	r4,r3
   40ff8:	0046c9c0 	call	46c9c <__extendsfdf2>
   40ffc:	1011883a 	mov	r8,r2
   41000:	1813883a 	mov	r9,r3
   41004:	400d883a 	mov	r6,r8
   41008:	480f883a 	mov	r7,r9
   4100c:	4009883a 	mov	r4,r8
   41010:	480b883a 	mov	r5,r9
   41014:	00448340 	call	44834 <__adddf3>
   41018:	1009883a 	mov	r4,r2
   4101c:	180b883a 	mov	r5,r3
   41020:	2005883a 	mov	r2,r4
   41024:	2807883a 	mov	r3,r5
   41028:	100d883a 	mov	r6,r2
   4102c:	180f883a 	mov	r7,r3
   41030:	9009883a 	mov	r4,r18
   41034:	980b883a 	mov	r5,r19
   41038:	00450e00 	call	450e0 <__divdf3>
   4103c:	1009883a 	mov	r4,r2
   41040:	180b883a 	mov	r5,r3
   41044:	2005883a 	mov	r2,r4
   41048:	2807883a 	mov	r3,r5
   4104c:	1009883a 	mov	r4,r2
   41050:	180b883a 	mov	r5,r3
   41054:	00421c40 	call	421c4 <round>
   41058:	1009883a 	mov	r4,r2
   4105c:	180b883a 	mov	r5,r3
   41060:	200d883a 	mov	r6,r4
   41064:	280f883a 	mov	r7,r5
   41068:	8009883a 	mov	r4,r16
   4106c:	880b883a 	mov	r5,r17
   41070:	0045b2c0 	call	45b2c <__muldf3>
   41074:	1009883a 	mov	r4,r2
   41078:	180b883a 	mov	r5,r3
   4107c:	2005883a 	mov	r2,r4
   41080:	2807883a 	mov	r3,r5
   41084:	1009883a 	mov	r4,r2
   41088:	180b883a 	mov	r5,r3
   4108c:	0046dac0 	call	46dac <__truncdfsf2>
   41090:	1007883a 	mov	r3,r2
   41094:	e0fff515 	stw	r3,-44(fp)
	x = recon->anti_diff_buffer[recon->order-1] + x;
   41098:	e0bff917 	ldw	r2,-28(fp)
   4109c:	10800517 	ldw	r2,20(r2)
   410a0:	10bfffc4 	addi	r2,r2,-1
   410a4:	e0fff917 	ldw	r3,-28(fp)
   410a8:	10801b44 	addi	r2,r2,109
   410ac:	1085883a 	add	r2,r2,r2
   410b0:	1085883a 	add	r2,r2,r2
   410b4:	1885883a 	add	r2,r3,r2
   410b8:	10c00017 	ldw	r3,0(r2)
   410bc:	180b883a 	mov	r5,r3
   410c0:	e13ff517 	ldw	r4,-44(fp)
   410c4:	00433340 	call	43334 <__addsf3>
   410c8:	1007883a 	mov	r3,r2
   410cc:	e0fff515 	stw	r3,-44(fp)


	recon->anti_diff_buffer[recon->order-1] = x;
   410d0:	e0bff917 	ldw	r2,-28(fp)
   410d4:	10800517 	ldw	r2,20(r2)
   410d8:	10bfffc4 	addi	r2,r2,-1
   410dc:	e0fff917 	ldw	r3,-28(fp)
   410e0:	10801b44 	addi	r2,r2,109
   410e4:	1085883a 	add	r2,r2,r2
   410e8:	1085883a 	add	r2,r2,r2
   410ec:	1885883a 	add	r2,r3,r2
   410f0:	e0fff517 	ldw	r3,-44(fp)
   410f4:	10c00015 	stw	r3,0(r2)


	float avg2 = updateMovingAverage(ma2, x);
   410f8:	e17ff517 	ldw	r5,-44(fp)
   410fc:	e13ffb17 	ldw	r4,-20(fp)
   41100:	00403040 	call	40304 <updateMovingAverage>
   41104:	e0bff715 	stw	r2,-36(fp)
//	x = hpf_update(hpf, x);
	x=x-avg2;
   41108:	e17ff717 	ldw	r5,-36(fp)
   4110c:	e13ff517 	ldw	r4,-44(fp)
   41110:	00441bc0 	call	441bc <__subsf3>
   41114:	1007883a 	mov	r3,r2
   41118:	e0fff515 	stw	r3,-44(fp)


	return x;  // final reconstructed sample g[k]
   4111c:	e0bff517 	ldw	r2,-44(fp)
   41120:	1007883a 	mov	r3,r2
}
   41124:	1805883a 	mov	r2,r3
   41128:	e6fffc04 	addi	sp,fp,-16
   4112c:	dfc00517 	ldw	ra,20(sp)
   41130:	df000417 	ldw	fp,16(sp)
   41134:	dcc00317 	ldw	r19,12(sp)
   41138:	dc800217 	ldw	r18,8(sp)
   4113c:	dc400117 	ldw	r17,4(sp)
   41140:	dc000017 	ldw	r16,0(sp)
   41144:	dec00604 	addi	sp,sp,24
   41148:	f800283a 	ret

0004114c <anti_diff_1st>:
float anti_diff_1st(float diffN,UnlimitedSamplerReconstructor *recon, MovingAverage *ma1,MovingAverage *ma2, MovingAverage *ma3) {
   4114c:	defff404 	addi	sp,sp,-48
   41150:	dfc00b15 	stw	ra,44(sp)
   41154:	df000a15 	stw	fp,40(sp)
   41158:	dcc00915 	stw	r19,36(sp)
   4115c:	dc800815 	stw	r18,32(sp)
   41160:	dc400715 	stw	r17,28(sp)
   41164:	dc000615 	stw	r16,24(sp)
   41168:	df000a04 	addi	fp,sp,40
   4116c:	e13ff815 	stw	r4,-32(fp)
   41170:	e17ff915 	stw	r5,-28(fp)
   41174:	e1bffa15 	stw	r6,-24(fp)
   41178:	e1fffb15 	stw	r7,-20(fp)
	float x = diffN;  // the N-th difference input ([k])
   4117c:	e0bff817 	ldw	r2,-32(fp)
   41180:	e0bff615 	stw	r2,-40(fp)

	// Final integration

	x = recon->anti_diff_buffer[recon->order-1] + x;
   41184:	e0bff917 	ldw	r2,-28(fp)
   41188:	10800517 	ldw	r2,20(r2)
   4118c:	10bfffc4 	addi	r2,r2,-1
   41190:	e0fff917 	ldw	r3,-28(fp)
   41194:	10801b44 	addi	r2,r2,109
   41198:	1085883a 	add	r2,r2,r2
   4119c:	1085883a 	add	r2,r2,r2
   411a0:	1885883a 	add	r2,r3,r2
   411a4:	10c00017 	ldw	r3,0(r2)
   411a8:	180b883a 	mov	r5,r3
   411ac:	e13ff617 	ldw	r4,-40(fp)
   411b0:	00433340 	call	43334 <__addsf3>
   411b4:	1007883a 	mov	r3,r2
   411b8:	e0fff615 	stw	r3,-40(fp)
	x=2.0 * recon->lam * round(x / (2.0 * recon->lam));
   411bc:	e0bff917 	ldw	r2,-28(fp)
   411c0:	10c00017 	ldw	r3,0(r2)
   411c4:	1809883a 	mov	r4,r3
   411c8:	0046c9c0 	call	46c9c <__extendsfdf2>
   411cc:	1011883a 	mov	r8,r2
   411d0:	1813883a 	mov	r9,r3
   411d4:	400d883a 	mov	r6,r8
   411d8:	480f883a 	mov	r7,r9
   411dc:	4009883a 	mov	r4,r8
   411e0:	480b883a 	mov	r5,r9
   411e4:	00448340 	call	44834 <__adddf3>
   411e8:	1009883a 	mov	r4,r2
   411ec:	180b883a 	mov	r5,r3
   411f0:	2021883a 	mov	r16,r4
   411f4:	2823883a 	mov	r17,r5
   411f8:	e13ff617 	ldw	r4,-40(fp)
   411fc:	0046c9c0 	call	46c9c <__extendsfdf2>
   41200:	1025883a 	mov	r18,r2
   41204:	1827883a 	mov	r19,r3
   41208:	e0bff917 	ldw	r2,-28(fp)
   4120c:	10c00017 	ldw	r3,0(r2)
   41210:	1809883a 	mov	r4,r3
   41214:	0046c9c0 	call	46c9c <__extendsfdf2>
   41218:	1011883a 	mov	r8,r2
   4121c:	1813883a 	mov	r9,r3
   41220:	400d883a 	mov	r6,r8
   41224:	480f883a 	mov	r7,r9
   41228:	4009883a 	mov	r4,r8
   4122c:	480b883a 	mov	r5,r9
   41230:	00448340 	call	44834 <__adddf3>
   41234:	1009883a 	mov	r4,r2
   41238:	180b883a 	mov	r5,r3
   4123c:	2005883a 	mov	r2,r4
   41240:	2807883a 	mov	r3,r5
   41244:	100d883a 	mov	r6,r2
   41248:	180f883a 	mov	r7,r3
   4124c:	9009883a 	mov	r4,r18
   41250:	980b883a 	mov	r5,r19
   41254:	00450e00 	call	450e0 <__divdf3>
   41258:	1009883a 	mov	r4,r2
   4125c:	180b883a 	mov	r5,r3
   41260:	2005883a 	mov	r2,r4
   41264:	2807883a 	mov	r3,r5
   41268:	1009883a 	mov	r4,r2
   4126c:	180b883a 	mov	r5,r3
   41270:	00421c40 	call	421c4 <round>
   41274:	1009883a 	mov	r4,r2
   41278:	180b883a 	mov	r5,r3
   4127c:	200d883a 	mov	r6,r4
   41280:	280f883a 	mov	r7,r5
   41284:	8009883a 	mov	r4,r16
   41288:	880b883a 	mov	r5,r17
   4128c:	0045b2c0 	call	45b2c <__muldf3>
   41290:	1009883a 	mov	r4,r2
   41294:	180b883a 	mov	r5,r3
   41298:	2005883a 	mov	r2,r4
   4129c:	2807883a 	mov	r3,r5
   412a0:	1009883a 	mov	r4,r2
   412a4:	180b883a 	mov	r5,r3
   412a8:	0046dac0 	call	46dac <__truncdfsf2>
   412ac:	1007883a 	mov	r3,r2
   412b0:	e0fff615 	stw	r3,-40(fp)


	recon->anti_diff_buffer[recon->order-1] = x;
   412b4:	e0bff917 	ldw	r2,-28(fp)
   412b8:	10800517 	ldw	r2,20(r2)
   412bc:	10bfffc4 	addi	r2,r2,-1
   412c0:	e0fff917 	ldw	r3,-28(fp)
   412c4:	10801b44 	addi	r2,r2,109
   412c8:	1085883a 	add	r2,r2,r2
   412cc:	1085883a 	add	r2,r2,r2
   412d0:	1885883a 	add	r2,r3,r2
   412d4:	e0fff617 	ldw	r3,-40(fp)
   412d8:	10c00015 	stw	r3,0(r2)

	float avg2 = updateMovingAverage(ma2, x);
   412dc:	e17ff617 	ldw	r5,-40(fp)
   412e0:	e13ffb17 	ldw	r4,-20(fp)
   412e4:	00403040 	call	40304 <updateMovingAverage>
   412e8:	e0bff715 	stw	r2,-36(fp)
//	x = hpf_update(hpf, x);
	x=x-avg2;
   412ec:	e17ff717 	ldw	r5,-36(fp)
   412f0:	e13ff617 	ldw	r4,-40(fp)
   412f4:	00441bc0 	call	441bc <__subsf3>
   412f8:	1007883a 	mov	r3,r2
   412fc:	e0fff615 	stw	r3,-40(fp)


	return x;  // final reconstructed sample g[k]
   41300:	e0bff617 	ldw	r2,-40(fp)
   41304:	1007883a 	mov	r3,r2
}
   41308:	1805883a 	mov	r2,r3
   4130c:	e6fffc04 	addi	sp,fp,-16
   41310:	dfc00517 	ldw	ra,20(sp)
   41314:	df000417 	ldw	fp,16(sp)
   41318:	dcc00317 	ldw	r19,12(sp)
   4131c:	dc800217 	ldw	r18,8(sp)
   41320:	dc400117 	ldw	r17,4(sp)
   41324:	dc000017 	ldw	r16,0(sp)
   41328:	dec00604 	addi	sp,sp,24
   4132c:	f800283a 	ret

00041330 <calc_order>:

int calc_order(UnlimitedSamplerReconstructor *recon) {
   41330:	defff704 	addi	sp,sp,-36
   41334:	dfc00815 	stw	ra,32(sp)
   41338:	df000715 	stw	fp,28(sp)
   4133c:	dc400615 	stw	r17,24(sp)
   41340:	dc000515 	stw	r16,20(sp)
   41344:	df000704 	addi	fp,sp,28
   41348:	e13ffd15 	stw	r4,-12(fp)
	float denominator = recon->sampling_interval * M_PI * M_E;
   4134c:	e0bffd17 	ldw	r2,-12(fp)
   41350:	10c0d217 	ldw	r3,840(r2)
   41354:	1809883a 	mov	r4,r3
   41358:	0046c9c0 	call	46c9c <__extendsfdf2>
   4135c:	1011883a 	mov	r8,r2
   41360:	1813883a 	mov	r9,r3
   41364:	01951134 	movhi	r6,21572
   41368:	318b4604 	addi	r6,r6,11544
   4136c:	01d00274 	movhi	r7,16393
   41370:	39c87ec4 	addi	r7,r7,8699
   41374:	4009883a 	mov	r4,r8
   41378:	480b883a 	mov	r5,r9
   4137c:	0045b2c0 	call	45b2c <__muldf3>
   41380:	1009883a 	mov	r4,r2
   41384:	180b883a 	mov	r5,r3
   41388:	2005883a 	mov	r2,r4
   4138c:	2807883a 	mov	r3,r5
   41390:	01a2c534 	movhi	r6,35604
   41394:	3195da44 	addi	r6,r6,22377
   41398:	01d001b4 	movhi	r7,16390
   4139c:	39efc284 	addi	r7,r7,-16630
   413a0:	1009883a 	mov	r4,r2
   413a4:	180b883a 	mov	r5,r3
   413a8:	0045b2c0 	call	45b2c <__muldf3>
   413ac:	1009883a 	mov	r4,r2
   413b0:	180b883a 	mov	r5,r3
   413b4:	2005883a 	mov	r2,r4
   413b8:	2807883a 	mov	r3,r5
   413bc:	1009883a 	mov	r4,r2
   413c0:	180b883a 	mov	r5,r3
   413c4:	0046dac0 	call	46dac <__truncdfsf2>
   413c8:	1007883a 	mov	r3,r2
   413cc:	e0fffa15 	stw	r3,-24(fp)

    if (recon->lam <= 0 || recon->max_in <= 0 || denominator <= 0) {
   413d0:	e0bffd17 	ldw	r2,-12(fp)
   413d4:	10c00017 	ldw	r3,0(r2)
   413d8:	000b883a 	mov	r5,zero
   413dc:	1809883a 	mov	r4,r3
   413e0:	0043cf80 	call	43cf8 <__lesf2>
   413e4:	00800a0e 	bge	zero,r2,41410 <calc_order+0xe0>
   413e8:	e0bffd17 	ldw	r2,-12(fp)
   413ec:	10c00417 	ldw	r3,16(r2)
   413f0:	000b883a 	mov	r5,zero
   413f4:	1809883a 	mov	r4,r3
   413f8:	0043cf80 	call	43cf8 <__lesf2>
   413fc:	0080040e 	bge	zero,r2,41410 <calc_order+0xe0>
   41400:	000b883a 	mov	r5,zero
   41404:	e13ffa17 	ldw	r4,-24(fp)
   41408:	0043cf80 	call	43cf8 <__lesf2>
   4140c:	00800216 	blt	zero,r2,41418 <calc_order+0xe8>
        // Handle invalid input
        return 1;  // or any other error signal
   41410:	00800044 	movi	r2,1
   41414:	00004c06 	br	41548 <calc_order+0x218>
    }

    float ratio = log(recon->lam) - log(recon->max_in);
   41418:	e0bffd17 	ldw	r2,-12(fp)
   4141c:	10c00017 	ldw	r3,0(r2)
   41420:	1809883a 	mov	r4,r3
   41424:	0046c9c0 	call	46c9c <__extendsfdf2>
   41428:	100b883a 	mov	r5,r2
   4142c:	180d883a 	mov	r6,r3
   41430:	2809883a 	mov	r4,r5
   41434:	300b883a 	mov	r5,r6
   41438:	00424a00 	call	424a0 <log>
   4143c:	1021883a 	mov	r16,r2
   41440:	1823883a 	mov	r17,r3
   41444:	e0bffd17 	ldw	r2,-12(fp)
   41448:	10c00417 	ldw	r3,16(r2)
   4144c:	1809883a 	mov	r4,r3
   41450:	0046c9c0 	call	46c9c <__extendsfdf2>
   41454:	100b883a 	mov	r5,r2
   41458:	180d883a 	mov	r6,r3
   4145c:	2809883a 	mov	r4,r5
   41460:	300b883a 	mov	r5,r6
   41464:	00424a00 	call	424a0 <log>
   41468:	1009883a 	mov	r4,r2
   4146c:	180b883a 	mov	r5,r3
   41470:	200d883a 	mov	r6,r4
   41474:	280f883a 	mov	r7,r5
   41478:	8009883a 	mov	r4,r16
   4147c:	880b883a 	mov	r5,r17
   41480:	00462440 	call	46244 <__subdf3>
   41484:	1009883a 	mov	r4,r2
   41488:	180b883a 	mov	r5,r3
   4148c:	2005883a 	mov	r2,r4
   41490:	2807883a 	mov	r3,r5
   41494:	1009883a 	mov	r4,r2
   41498:	180b883a 	mov	r5,r3
   4149c:	0046dac0 	call	46dac <__truncdfsf2>
   414a0:	1007883a 	mov	r3,r2
   414a4:	e0fffb15 	stw	r3,-20(fp)
    float denom_log = log(denominator);
   414a8:	e13ffa17 	ldw	r4,-24(fp)
   414ac:	0046c9c0 	call	46c9c <__extendsfdf2>
   414b0:	100b883a 	mov	r5,r2
   414b4:	180d883a 	mov	r6,r3
   414b8:	2809883a 	mov	r4,r5
   414bc:	300b883a 	mov	r5,r6
   414c0:	00424a00 	call	424a0 <log>
   414c4:	100b883a 	mov	r5,r2
   414c8:	180d883a 	mov	r6,r3
   414cc:	2809883a 	mov	r4,r5
   414d0:	300b883a 	mov	r5,r6
   414d4:	0046dac0 	call	46dac <__truncdfsf2>
   414d8:	1007883a 	mov	r3,r2
   414dc:	e0fffc15 	stw	r3,-16(fp)
    int N = (int)ceil(ratio / denom_log);
   414e0:	e17ffc17 	ldw	r5,-16(fp)
   414e4:	e13ffb17 	ldw	r4,-20(fp)
   414e8:	00437fc0 	call	437fc <__divsf3>
   414ec:	1007883a 	mov	r3,r2
   414f0:	1805883a 	mov	r2,r3
   414f4:	1009883a 	mov	r4,r2
   414f8:	0046c9c0 	call	46c9c <__extendsfdf2>
   414fc:	100b883a 	mov	r5,r2
   41500:	180d883a 	mov	r6,r3
   41504:	2809883a 	mov	r4,r5
   41508:	300b883a 	mov	r5,r6
   4150c:	0041fe40 	call	41fe4 <ceil>
   41510:	100b883a 	mov	r5,r2
   41514:	180d883a 	mov	r6,r3
   41518:	2809883a 	mov	r4,r5
   4151c:	300b883a 	mov	r5,r6
   41520:	0046b400 	call	46b40 <__fixdfsi>
   41524:	e0bff915 	stw	r2,-28(fp)
//    return N;
    if (N> MAX_ORDER){
   41528:	e0bff917 	ldw	r2,-28(fp)
   4152c:	10801950 	cmplti	r2,r2,101
   41530:	1000021e 	bne	r2,zero,4153c <calc_order+0x20c>
    	N=MAX_ORDER;
   41534:	00801904 	movi	r2,100
   41538:	e0bff915 	stw	r2,-28(fp)
    }
    return N > 1 ? N : 1;
   4153c:	e0bff917 	ldw	r2,-28(fp)
   41540:	00800116 	blt	zero,r2,41548 <calc_order+0x218>
   41544:	00800044 	movi	r2,1
}
   41548:	e6fffe04 	addi	sp,fp,-8
   4154c:	dfc00317 	ldw	ra,12(sp)
   41550:	df000217 	ldw	fp,8(sp)
   41554:	dc400117 	ldw	r17,4(sp)
   41558:	dc000017 	ldw	r16,0(sp)
   4155c:	dec00404 	addi	sp,sp,16
   41560:	f800283a 	ret

00041564 <modulo>:
/* Centered modulo function into [-, ) */
float modulo(float x, float lam) {
   41564:	defff804 	addi	sp,sp,-32
   41568:	dfc00715 	stw	ra,28(sp)
   4156c:	df000615 	stw	fp,24(sp)
   41570:	dc400515 	stw	r17,20(sp)
   41574:	dc000415 	stw	r16,16(sp)
   41578:	df000604 	addi	fp,sp,24
   4157c:	e13ffc15 	stw	r4,-16(fp)
   41580:	e17ffd15 	stw	r5,-12(fp)
    float two_lam = 2.0 * lam;
   41584:	e0bffd17 	ldw	r2,-12(fp)
   41588:	100b883a 	mov	r5,r2
   4158c:	1009883a 	mov	r4,r2
   41590:	00433340 	call	43334 <__addsf3>
   41594:	1007883a 	mov	r3,r2
   41598:	e0fffb15 	stw	r3,-20(fp)
    float mod = fmod(x + lam, two_lam);
   4159c:	e17ffd17 	ldw	r5,-12(fp)
   415a0:	e13ffc17 	ldw	r4,-16(fp)
   415a4:	00433340 	call	43334 <__addsf3>
   415a8:	1007883a 	mov	r3,r2
   415ac:	1805883a 	mov	r2,r3
   415b0:	1009883a 	mov	r4,r2
   415b4:	0046c9c0 	call	46c9c <__extendsfdf2>
   415b8:	1021883a 	mov	r16,r2
   415bc:	1823883a 	mov	r17,r3
   415c0:	e13ffb17 	ldw	r4,-20(fp)
   415c4:	0046c9c0 	call	46c9c <__extendsfdf2>
   415c8:	1009883a 	mov	r4,r2
   415cc:	180b883a 	mov	r5,r3
   415d0:	200d883a 	mov	r6,r4
   415d4:	280f883a 	mov	r7,r5
   415d8:	8009883a 	mov	r4,r16
   415dc:	880b883a 	mov	r5,r17
   415e0:	00423480 	call	42348 <fmod>
   415e4:	100b883a 	mov	r5,r2
   415e8:	180d883a 	mov	r6,r3
   415ec:	2809883a 	mov	r4,r5
   415f0:	300b883a 	mov	r5,r6
   415f4:	0046dac0 	call	46dac <__truncdfsf2>
   415f8:	1007883a 	mov	r3,r2
   415fc:	e0fffa15 	stw	r3,-24(fp)
    if (mod < 0) mod += two_lam;
   41600:	000b883a 	mov	r5,zero
   41604:	e13ffa17 	ldw	r4,-24(fp)
   41608:	0043cf80 	call	43cf8 <__lesf2>
   4160c:	1000050e 	bge	r2,zero,41624 <modulo+0xc0>
   41610:	e17ffb17 	ldw	r5,-20(fp)
   41614:	e13ffa17 	ldw	r4,-24(fp)
   41618:	00433340 	call	43334 <__addsf3>
   4161c:	1007883a 	mov	r3,r2
   41620:	e0fffa15 	stw	r3,-24(fp)
    return mod - lam;
   41624:	e17ffd17 	ldw	r5,-12(fp)
   41628:	e13ffa17 	ldw	r4,-24(fp)
   4162c:	00441bc0 	call	441bc <__subsf3>
   41630:	1009883a 	mov	r4,r2
   41634:	2007883a 	mov	r3,r4
   41638:	1805883a 	mov	r2,r3
}
   4163c:	e6fffe04 	addi	sp,fp,-8
   41640:	dfc00317 	ldw	ra,12(sp)
   41644:	df000217 	ldw	fp,8(sp)
   41648:	dc400117 	ldw	r17,4(sp)
   4164c:	dc000017 	ldw	r16,0(sp)
   41650:	dec00404 	addi	sp,sp,16
   41654:	f800283a 	ret

00041658 <center_to_2lam>:
float center_to_2lam(float x, float lam) {
   41658:	defffb04 	addi	sp,sp,-20
   4165c:	dfc00415 	stw	ra,16(sp)
   41660:	df000315 	stw	fp,12(sp)
   41664:	dc000215 	stw	r16,8(sp)
   41668:	df000304 	addi	fp,sp,12
   4166c:	e13ffd15 	stw	r4,-12(fp)
   41670:	e17ffe15 	stw	r5,-8(fp)
    return 2.0f * lam * roundf(x / (2.0f * lam));
   41674:	e0bffe17 	ldw	r2,-8(fp)
   41678:	100b883a 	mov	r5,r2
   4167c:	1009883a 	mov	r4,r2
   41680:	00433340 	call	43334 <__addsf3>
   41684:	1007883a 	mov	r3,r2
   41688:	1821883a 	mov	r16,r3
   4168c:	e0bffe17 	ldw	r2,-8(fp)
   41690:	100b883a 	mov	r5,r2
   41694:	1009883a 	mov	r4,r2
   41698:	00433340 	call	43334 <__addsf3>
   4169c:	1007883a 	mov	r3,r2
   416a0:	1805883a 	mov	r2,r3
   416a4:	100b883a 	mov	r5,r2
   416a8:	e13ffd17 	ldw	r4,-12(fp)
   416ac:	00437fc0 	call	437fc <__divsf3>
   416b0:	1007883a 	mov	r3,r2
   416b4:	1805883a 	mov	r2,r3
   416b8:	1009883a 	mov	r4,r2
   416bc:	00422c40 	call	422c4 <roundf>
   416c0:	1007883a 	mov	r3,r2
   416c4:	180b883a 	mov	r5,r3
   416c8:	8009883a 	mov	r4,r16
   416cc:	0043dc00 	call	43dc0 <__mulsf3>
   416d0:	1009883a 	mov	r4,r2
   416d4:	2007883a 	mov	r3,r4
   416d8:	1805883a 	mov	r2,r3
}
   416dc:	e6ffff04 	addi	sp,fp,-4
   416e0:	dfc00217 	ldw	ra,8(sp)
   416e4:	df000117 	ldw	fp,4(sp)
   416e8:	dc000017 	ldw	r16,0(sp)
   416ec:	dec00304 	addi	sp,sp,12
   416f0:	f800283a 	ret

000416f4 <update>:

float update(UnlimitedSamplerReconstructor *recon, int order, float yk,MovingAverage *ma1,MovingAverage *ma2,MovingAverage *ma3) {
   416f4:	defff204 	addi	sp,sp,-56
   416f8:	dfc00d15 	stw	ra,52(sp)
   416fc:	df000c15 	stw	fp,48(sp)
   41700:	dc400b15 	stw	r17,44(sp)
   41704:	dc000a15 	stw	r16,40(sp)
   41708:	df000c04 	addi	fp,sp,48
   4170c:	e13ffa15 	stw	r4,-24(fp)
   41710:	e17ffb15 	stw	r5,-20(fp)
   41714:	e1bffc15 	stw	r6,-16(fp)
   41718:	e1fffd15 	stw	r7,-12(fp)
	if (yk> recon->max_in){
   4171c:	e0bffa17 	ldw	r2,-24(fp)
   41720:	10c00417 	ldw	r3,16(r2)
   41724:	e17ffc17 	ldw	r5,-16(fp)
   41728:	1809883a 	mov	r4,r3
   4172c:	0043cf80 	call	43cf8 <__lesf2>
   41730:	10002f0e 	bge	r2,zero,417f0 <update+0xfc>
		recon->max_in=(2*recon->lam)*round(yk/(2*recon->lam));
   41734:	e0fffa17 	ldw	r3,-24(fp)
   41738:	18800017 	ldw	r2,0(r3)
   4173c:	100b883a 	mov	r5,r2
   41740:	1009883a 	mov	r4,r2
   41744:	00433340 	call	43334 <__addsf3>
   41748:	1007883a 	mov	r3,r2
   4174c:	1805883a 	mov	r2,r3
   41750:	1009883a 	mov	r4,r2
   41754:	0046c9c0 	call	46c9c <__extendsfdf2>
   41758:	1021883a 	mov	r16,r2
   4175c:	1823883a 	mov	r17,r3
   41760:	e0fffa17 	ldw	r3,-24(fp)
   41764:	18800017 	ldw	r2,0(r3)
   41768:	100b883a 	mov	r5,r2
   4176c:	1009883a 	mov	r4,r2
   41770:	00433340 	call	43334 <__addsf3>
   41774:	1007883a 	mov	r3,r2
   41778:	1805883a 	mov	r2,r3
   4177c:	100b883a 	mov	r5,r2
   41780:	e13ffc17 	ldw	r4,-16(fp)
   41784:	00437fc0 	call	437fc <__divsf3>
   41788:	1007883a 	mov	r3,r2
   4178c:	1805883a 	mov	r2,r3
   41790:	1009883a 	mov	r4,r2
   41794:	0046c9c0 	call	46c9c <__extendsfdf2>
   41798:	100b883a 	mov	r5,r2
   4179c:	180d883a 	mov	r6,r3
   417a0:	2809883a 	mov	r4,r5
   417a4:	300b883a 	mov	r5,r6
   417a8:	00421c40 	call	421c4 <round>
   417ac:	1009883a 	mov	r4,r2
   417b0:	180b883a 	mov	r5,r3
   417b4:	200d883a 	mov	r6,r4
   417b8:	280f883a 	mov	r7,r5
   417bc:	8009883a 	mov	r4,r16
   417c0:	880b883a 	mov	r5,r17
   417c4:	0045b2c0 	call	45b2c <__muldf3>
   417c8:	1009883a 	mov	r4,r2
   417cc:	180b883a 	mov	r5,r3
   417d0:	2005883a 	mov	r2,r4
   417d4:	2807883a 	mov	r3,r5
   417d8:	1009883a 	mov	r4,r2
   417dc:	180b883a 	mov	r5,r3
   417e0:	0046dac0 	call	46dac <__truncdfsf2>
   417e4:	1007883a 	mov	r3,r2
   417e8:	e0bffa17 	ldw	r2,-24(fp)
   417ec:	10c00415 	stw	r3,16(r2)
//		printf("new largest= %f \n",recon->max_in);
//		recon->order = calc_order(recon);
//		printf("new order= %d \n",recon->order);

	}
	recon->order =order;
   417f0:	e0bffa17 	ldw	r2,-24(fp)
   417f4:	e0fffb17 	ldw	r3,-20(fp)
   417f8:	10c00515 	stw	r3,20(r2)

    float dy= nth_order_difference(yk,recon);
   417fc:	e17ffa17 	ldw	r5,-24(fp)
   41800:	e13ffc17 	ldw	r4,-16(fp)
   41804:	004065c0 	call	4065c <nth_order_difference>
   41808:	e0bff515 	stw	r2,-44(fp)

    // Step 2: Apply modulo to y[k]
    float mod_dy = modulo(dy, recon->lam);
   4180c:	e0bffa17 	ldw	r2,-24(fp)
   41810:	10c00017 	ldw	r3,0(r2)
   41814:	180b883a 	mov	r5,r3
   41818:	e13ff517 	ldw	r4,-44(fp)
   4181c:	00415640 	call	41564 <modulo>
   41820:	e0bff615 	stw	r2,-40(fp)

    // Step 3: Compute [k]
    float delta_eps = mod_dy - dy;
   41824:	e17ff517 	ldw	r5,-44(fp)
   41828:	e13ff617 	ldw	r4,-40(fp)
   4182c:	00441bc0 	call	441bc <__subsf3>
   41830:	1007883a 	mov	r3,r2
   41834:	e0fff715 	stw	r3,-36(fp)
    // Step 4: Update [k], round to nearest 2

    // use this function if you want no filters, or
//    recon->prev_eps =anti_diff_nth(delta_eps,recon);

    if (recon->order ==2){
   41838:	e0bffa17 	ldw	r2,-24(fp)
   4183c:	10800517 	ldw	r2,20(r2)
   41840:	10800098 	cmpnei	r2,r2,2
   41844:	10000b1e 	bne	r2,zero,41874 <update+0x180>
    	recon->prev_eps =anti_diff_2nd(delta_eps,recon,ma1,ma2,ma3);
   41848:	e0800317 	ldw	r2,12(fp)
   4184c:	d8800015 	stw	r2,0(sp)
   41850:	e1c00217 	ldw	r7,8(fp)
   41854:	e1bffd17 	ldw	r6,-12(fp)
   41858:	e17ffa17 	ldw	r5,-24(fp)
   4185c:	e13ff717 	ldw	r4,-36(fp)
   41860:	0040e240 	call	40e24 <anti_diff_2nd>
   41864:	1007883a 	mov	r3,r2
   41868:	e0bffa17 	ldw	r2,-24(fp)
   4186c:	10c00215 	stw	r3,8(r2)
   41870:	00002106 	br	418f8 <update+0x204>
    }
    else if (recon->order ==1){
   41874:	e0bffa17 	ldw	r2,-24(fp)
   41878:	10800517 	ldw	r2,20(r2)
   4187c:	10800058 	cmpnei	r2,r2,1
   41880:	10000b1e 	bne	r2,zero,418b0 <update+0x1bc>
    	recon->prev_eps =anti_diff_1st(delta_eps,recon,ma1,ma2,ma3);
   41884:	e0800317 	ldw	r2,12(fp)
   41888:	d8800015 	stw	r2,0(sp)
   4188c:	e1c00217 	ldw	r7,8(fp)
   41890:	e1bffd17 	ldw	r6,-12(fp)
   41894:	e17ffa17 	ldw	r5,-24(fp)
   41898:	e13ff717 	ldw	r4,-36(fp)
   4189c:	004114c0 	call	4114c <anti_diff_1st>
   418a0:	1007883a 	mov	r3,r2
   418a4:	e0bffa17 	ldw	r2,-24(fp)
   418a8:	10c00215 	stw	r3,8(r2)
   418ac:	00001206 	br	418f8 <update+0x204>
    }
    else if (recon->order ==3){
   418b0:	e0bffa17 	ldw	r2,-24(fp)
   418b4:	10800517 	ldw	r2,20(r2)
   418b8:	108000d8 	cmpnei	r2,r2,3
   418bc:	10000b1e 	bne	r2,zero,418ec <update+0x1f8>
    	recon->prev_eps =anti_diff_3rd(delta_eps,recon,ma1,ma2,ma3);
   418c0:	e0800317 	ldw	r2,12(fp)
   418c4:	d8800015 	stw	r2,0(sp)
   418c8:	e1c00217 	ldw	r7,8(fp)
   418cc:	e1bffd17 	ldw	r6,-12(fp)
   418d0:	e17ffa17 	ldw	r5,-24(fp)
   418d4:	e13ff717 	ldw	r4,-36(fp)
   418d8:	00409b80 	call	409b8 <anti_diff_3rd>
   418dc:	1007883a 	mov	r3,r2
   418e0:	e0bffa17 	ldw	r2,-24(fp)
   418e4:	10c00215 	stw	r3,8(r2)
   418e8:	00000306 	br	418f8 <update+0x204>
    }
    else {
    	printf("order not implemented");
   418ec:	01000174 	movhi	r4,5
   418f0:	2116b604 	addi	r4,r4,23256
   418f4:	0046ff80 	call	46ff8 <printf>

    }


    float eps_k=recon->prev_eps;
   418f8:	e0bffa17 	ldw	r2,-24(fp)
   418fc:	10800217 	ldw	r2,8(r2)
   41900:	e0bff815 	stw	r2,-32(fp)

    // Step 5: Recover g[k]
    float gk = yk + eps_k;
   41904:	e17ff817 	ldw	r5,-32(fp)
   41908:	e13ffc17 	ldw	r4,-16(fp)
   4190c:	00433340 	call	43334 <__addsf3>
   41910:	1007883a 	mov	r3,r2
   41914:	e0fff915 	stw	r3,-28(fp)
//    printf("reconstructed val%f.\n", gk);

    // Update state
    recon->prev_y = yk;
   41918:	e0bffa17 	ldw	r2,-24(fp)
   4191c:	e0fffc17 	ldw	r3,-16(fp)
   41920:	10c00115 	stw	r3,4(r2)


//    return eps_k;
    return gk;
   41924:	e0bff917 	ldw	r2,-28(fp)
   41928:	1007883a 	mov	r3,r2

}
   4192c:	1805883a 	mov	r2,r3
   41930:	e6fffe04 	addi	sp,fp,-8
   41934:	dfc00317 	ldw	ra,12(sp)
   41938:	df000217 	ldw	fp,8(sp)
   4193c:	dc400117 	ldw	r17,4(sp)
   41940:	dc000017 	ldw	r16,0(sp)
   41944:	dec00404 	addi	sp,sp,16
   41948:	f800283a 	ret

0004194c <convert_adc_to_signal>:
/* Initialize the moving average filter */

/* Update the moving average with a new sample */


float convert_adc_to_signal(int adc_value, int ADC_MAX_VALUE, float V_REF, float OFFSET_VOLTAGE) {
   4194c:	defff704 	addi	sp,sp,-36
   41950:	dfc00815 	stw	ra,32(sp)
   41954:	df000715 	stw	fp,28(sp)
   41958:	dc000615 	stw	r16,24(sp)
   4195c:	df000704 	addi	fp,sp,28
   41960:	e13ffb15 	stw	r4,-20(fp)
   41964:	e17ffc15 	stw	r5,-16(fp)
   41968:	e1bffd15 	stw	r6,-12(fp)
   4196c:	e1fffe15 	stw	r7,-8(fp)
    // Calculate the input voltage
    float input_voltage = (adc_value / (float)ADC_MAX_VALUE) * V_REF;
   41970:	e13ffb17 	ldw	r4,-20(fp)
   41974:	00447100 	call	44710 <__floatsisf>
   41978:	1021883a 	mov	r16,r2
   4197c:	e13ffc17 	ldw	r4,-16(fp)
   41980:	00447100 	call	44710 <__floatsisf>
   41984:	1007883a 	mov	r3,r2
   41988:	180b883a 	mov	r5,r3
   4198c:	8009883a 	mov	r4,r16
   41990:	00437fc0 	call	437fc <__divsf3>
   41994:	1007883a 	mov	r3,r2
   41998:	1805883a 	mov	r2,r3
   4199c:	e17ffd17 	ldw	r5,-12(fp)
   419a0:	1009883a 	mov	r4,r2
   419a4:	0043dc00 	call	43dc0 <__mulsf3>
   419a8:	1007883a 	mov	r3,r2
   419ac:	e0fff915 	stw	r3,-28(fp)

    // Subtract the offset to get the original signal value
    float signal_value = input_voltage - OFFSET_VOLTAGE;
   419b0:	e17ffe17 	ldw	r5,-8(fp)
   419b4:	e13ff917 	ldw	r4,-28(fp)
   419b8:	00441bc0 	call	441bc <__subsf3>
   419bc:	1007883a 	mov	r3,r2
   419c0:	e0fffa15 	stw	r3,-24(fp)

    return signal_value;
   419c4:	e0bffa17 	ldw	r2,-24(fp)
   419c8:	1007883a 	mov	r3,r2
}
   419cc:	1805883a 	mov	r2,r3
   419d0:	e6ffff04 	addi	sp,fp,-4
   419d4:	dfc00217 	ldw	ra,8(sp)
   419d8:	df000117 	ldw	fp,4(sp)
   419dc:	dc000017 	ldw	r16,0(sp)
   419e0:	dec00304 	addi	sp,sp,12
   419e4:	f800283a 	ret

000419e8 <float_to_dac>:


uint8_t float_to_dac(float signal_value, int DAC_MAX_VALUE, float V_REF, float OFFSET) {
   419e8:	defff704 	addi	sp,sp,-36
   419ec:	dfc00815 	stw	ra,32(sp)
   419f0:	df000715 	stw	fp,28(sp)
   419f4:	dc000615 	stw	r16,24(sp)
   419f8:	df000704 	addi	fp,sp,28
   419fc:	e13ffb15 	stw	r4,-20(fp)
   41a00:	e17ffc15 	stw	r5,-16(fp)
   41a04:	e1bffd15 	stw	r6,-12(fp)
   41a08:	e1fffe15 	stw	r7,-8(fp)
    float dac_voltage;
    uint8_t dac_value;

    // Apply offset
    dac_voltage = signal_value + OFFSET;
   41a0c:	e17ffe17 	ldw	r5,-8(fp)
   41a10:	e13ffb17 	ldw	r4,-20(fp)
   41a14:	00433340 	call	43334 <__addsf3>
   41a18:	1007883a 	mov	r3,r2
   41a1c:	e0fff915 	stw	r3,-28(fp)

    // Clamp to DAC range (0V to 5V)
    if (dac_voltage < 0.0f) {
   41a20:	000b883a 	mov	r5,zero
   41a24:	e13ff917 	ldw	r4,-28(fp)
   41a28:	0043cf80 	call	43cf8 <__lesf2>
   41a2c:	1000020e 	bge	r2,zero,41a38 <float_to_dac+0x50>
        dac_voltage = 0.0f;
   41a30:	e03ff915 	stw	zero,-28(fp)
   41a34:	00000606 	br	41a50 <float_to_dac+0x68>
    } else if (dac_voltage > V_REF) {
   41a38:	e17ffd17 	ldw	r5,-12(fp)
   41a3c:	e13ff917 	ldw	r4,-28(fp)
   41a40:	0043c3c0 	call	43c3c <__gesf2>
   41a44:	0080020e 	bge	zero,r2,41a50 <float_to_dac+0x68>
        dac_voltage = V_REF;
   41a48:	e0bffd17 	ldw	r2,-12(fp)
   41a4c:	e0bff915 	stw	r2,-28(fp)
    }

    // Convert to DAC value
    dac_value = (uint8_t)((dac_voltage / V_REF) * DAC_MAX_VALUE);
   41a50:	e17ffd17 	ldw	r5,-12(fp)
   41a54:	e13ff917 	ldw	r4,-28(fp)
   41a58:	00437fc0 	call	437fc <__divsf3>
   41a5c:	1007883a 	mov	r3,r2
   41a60:	1821883a 	mov	r16,r3
   41a64:	e13ffc17 	ldw	r4,-16(fp)
   41a68:	00447100 	call	44710 <__floatsisf>
   41a6c:	1007883a 	mov	r3,r2
   41a70:	180b883a 	mov	r5,r3
   41a74:	8009883a 	mov	r4,r16
   41a78:	0043dc00 	call	43dc0 <__mulsf3>
   41a7c:	1007883a 	mov	r3,r2
   41a80:	1805883a 	mov	r2,r3
   41a84:	1009883a 	mov	r4,r2
   41a88:	00431200 	call	43120 <__fixunssfsi>
   41a8c:	e0bffa05 	stb	r2,-24(fp)

    return dac_value;
   41a90:	e0bffa03 	ldbu	r2,-24(fp)
}
   41a94:	e6ffff04 	addi	sp,fp,-4
   41a98:	dfc00217 	ldw	ra,8(sp)
   41a9c:	df000117 	ldw	fp,4(sp)
   41aa0:	dc000017 	ldw	r16,0(sp)
   41aa4:	dec00304 	addi	sp,sp,12
   41aa8:	f800283a 	ret

00041aac <send_to_PCF>:





int send_to_PCF(ALT_AVALON_I2C_DEV_t *i2c_dev, alt_u8 dac_value) {
   41aac:	defffa04 	addi	sp,sp,-24
   41ab0:	dfc00515 	stw	ra,20(sp)
   41ab4:	df000415 	stw	fp,16(sp)
   41ab8:	df000404 	addi	fp,sp,16
   41abc:	e13ffe15 	stw	r4,-8(fp)
   41ac0:	2805883a 	mov	r2,r5
   41ac4:	e0bfff05 	stb	r2,-4(fp)
    alt_u8 txbuffer[2];  // Buffer to hold data to send
    ALT_AVALON_I2C_STATUS_CODE status;

    // Prepare the control byte and DAC data
    txbuffer[0] = 0x40;     // Control byte: Enable DAC
   41ac8:	00801004 	movi	r2,64
   41acc:	e0bffd05 	stb	r2,-12(fp)
    txbuffer[1] = dac_value; // Data byte: Value to set DAC output
   41ad0:	e0bfff03 	ldbu	r2,-4(fp)
   41ad4:	e0bffd45 	stb	r2,-11(fp)

    // Write the data to the DAC
    status = alt_avalon_i2c_master_tx(i2c_dev, txbuffer, 2, ALT_AVALON_I2C_NO_INTERRUPTS);
   41ad8:	e0bffd04 	addi	r2,fp,-12
   41adc:	000f883a 	mov	r7,zero
   41ae0:	01800084 	movi	r6,2
   41ae4:	100b883a 	mov	r5,r2
   41ae8:	e13ffe17 	ldw	r4,-8(fp)
   41aec:	00529200 	call	52920 <alt_avalon_i2c_master_tx>
   41af0:	e0bffc15 	stw	r2,-16(fp)
    if (status != ALT_AVALON_I2C_SUCCESS) {
   41af4:	e0bffc17 	ldw	r2,-16(fp)
   41af8:	10000626 	beq	r2,zero,41b14 <send_to_PCF+0x68>
        printf("Error: I2C write to DAC failed with status code: %d\n", status);
   41afc:	e17ffc17 	ldw	r5,-16(fp)
   41b00:	01000174 	movhi	r4,5
   41b04:	2116bc04 	addi	r4,r4,23280
   41b08:	0046ff80 	call	46ff8 <printf>
        return -1; // Return error
   41b0c:	00bfffc4 	movi	r2,-1
   41b10:	00000106 	br	41b18 <send_to_PCF+0x6c>
    }
   // printf("inhere");
    return 0; // Success
   41b14:	0005883a 	mov	r2,zero
}
   41b18:	e037883a 	mov	sp,fp
   41b1c:	dfc00117 	ldw	ra,4(sp)
   41b20:	df000017 	ldw	fp,0(sp)
   41b24:	dec00204 	addi	sp,sp,8
   41b28:	f800283a 	ret

00041b2c <process_lowpass>:
//float alpha = 0.1f;  // Adjust based on desired cutoff
float fc = 5000.0f;
float fs = 10000.0f;


float process_lowpass(float x) {
   41b2c:	defff704 	addi	sp,sp,-36
   41b30:	dfc00815 	stw	ra,32(sp)
   41b34:	df000715 	stw	fp,28(sp)
   41b38:	dcc00615 	stw	r19,24(sp)
   41b3c:	dc800515 	stw	r18,20(sp)
   41b40:	dc400415 	stw	r17,16(sp)
   41b44:	dc000315 	stw	r16,12(sp)
   41b48:	df000704 	addi	fp,sp,28
   41b4c:	e13ffb15 	stw	r4,-20(fp)
	float alpha = (2.0f * M_PI * fc) / (fs + 2.0f * M_PI * fc);
   41b50:	d0a00017 	ldw	r2,-32768(gp)
   41b54:	1009883a 	mov	r4,r2
   41b58:	0046c9c0 	call	46c9c <__extendsfdf2>
   41b5c:	1011883a 	mov	r8,r2
   41b60:	1813883a 	mov	r9,r3
   41b64:	01951134 	movhi	r6,21572
   41b68:	318b4604 	addi	r6,r6,11544
   41b6c:	01d00674 	movhi	r7,16409
   41b70:	39c87ec4 	addi	r7,r7,8699
   41b74:	4009883a 	mov	r4,r8
   41b78:	480b883a 	mov	r5,r9
   41b7c:	0045b2c0 	call	45b2c <__muldf3>
   41b80:	1009883a 	mov	r4,r2
   41b84:	180b883a 	mov	r5,r3
   41b88:	2021883a 	mov	r16,r4
   41b8c:	2823883a 	mov	r17,r5
   41b90:	d0a00117 	ldw	r2,-32764(gp)
   41b94:	1009883a 	mov	r4,r2
   41b98:	0046c9c0 	call	46c9c <__extendsfdf2>
   41b9c:	1025883a 	mov	r18,r2
   41ba0:	1827883a 	mov	r19,r3
   41ba4:	d0a00017 	ldw	r2,-32768(gp)
   41ba8:	1009883a 	mov	r4,r2
   41bac:	0046c9c0 	call	46c9c <__extendsfdf2>
   41bb0:	1011883a 	mov	r8,r2
   41bb4:	1813883a 	mov	r9,r3
   41bb8:	01951134 	movhi	r6,21572
   41bbc:	318b4604 	addi	r6,r6,11544
   41bc0:	01d00674 	movhi	r7,16409
   41bc4:	39c87ec4 	addi	r7,r7,8699
   41bc8:	4009883a 	mov	r4,r8
   41bcc:	480b883a 	mov	r5,r9
   41bd0:	0045b2c0 	call	45b2c <__muldf3>
   41bd4:	1009883a 	mov	r4,r2
   41bd8:	180b883a 	mov	r5,r3
   41bdc:	2005883a 	mov	r2,r4
   41be0:	2807883a 	mov	r3,r5
   41be4:	100d883a 	mov	r6,r2
   41be8:	180f883a 	mov	r7,r3
   41bec:	9009883a 	mov	r4,r18
   41bf0:	980b883a 	mov	r5,r19
   41bf4:	00448340 	call	44834 <__adddf3>
   41bf8:	1009883a 	mov	r4,r2
   41bfc:	180b883a 	mov	r5,r3
   41c00:	2005883a 	mov	r2,r4
   41c04:	2807883a 	mov	r3,r5
   41c08:	100d883a 	mov	r6,r2
   41c0c:	180f883a 	mov	r7,r3
   41c10:	8009883a 	mov	r4,r16
   41c14:	880b883a 	mov	r5,r17
   41c18:	00450e00 	call	450e0 <__divdf3>
   41c1c:	1009883a 	mov	r4,r2
   41c20:	180b883a 	mov	r5,r3
   41c24:	2005883a 	mov	r2,r4
   41c28:	2807883a 	mov	r3,r5
   41c2c:	1009883a 	mov	r4,r2
   41c30:	180b883a 	mov	r5,r3
   41c34:	0046dac0 	call	46dac <__truncdfsf2>
   41c38:	1007883a 	mov	r3,r2
   41c3c:	e0fff915 	stw	r3,-28(fp)
    float y = alpha * x + (1.0f - alpha) * y_prev;
   41c40:	e17ffb17 	ldw	r5,-20(fp)
   41c44:	e13ff917 	ldw	r4,-28(fp)
   41c48:	0043dc00 	call	43dc0 <__mulsf3>
   41c4c:	1007883a 	mov	r3,r2
   41c50:	1821883a 	mov	r16,r3
   41c54:	e17ff917 	ldw	r5,-28(fp)
   41c58:	010fe034 	movhi	r4,16256
   41c5c:	00441bc0 	call	441bc <__subsf3>
   41c60:	1009883a 	mov	r4,r2
   41c64:	2007883a 	mov	r3,r4
   41c68:	d0a6e517 	ldw	r2,-25708(gp)
   41c6c:	100b883a 	mov	r5,r2
   41c70:	1809883a 	mov	r4,r3
   41c74:	0043dc00 	call	43dc0 <__mulsf3>
   41c78:	1007883a 	mov	r3,r2
   41c7c:	1805883a 	mov	r2,r3
   41c80:	100b883a 	mov	r5,r2
   41c84:	8009883a 	mov	r4,r16
   41c88:	00433340 	call	43334 <__addsf3>
   41c8c:	1007883a 	mov	r3,r2
   41c90:	e0fffa15 	stw	r3,-24(fp)
    y_prev = y;
   41c94:	e0bffa17 	ldw	r2,-24(fp)
   41c98:	d0a6e515 	stw	r2,-25708(gp)
    return y;
   41c9c:	e0bffa17 	ldw	r2,-24(fp)
   41ca0:	1007883a 	mov	r3,r2
}
   41ca4:	1805883a 	mov	r2,r3
   41ca8:	e6fffc04 	addi	sp,fp,-16
   41cac:	dfc00517 	ldw	ra,20(sp)
   41cb0:	df000417 	ldw	fp,16(sp)
   41cb4:	dcc00317 	ldw	r19,12(sp)
   41cb8:	dc800217 	ldw	r18,8(sp)
   41cbc:	dc400117 	ldw	r17,4(sp)
   41cc0:	dc000017 	ldw	r16,0(sp)
   41cc4:	dec00604 	addi	sp,sp,24
   41cc8:	f800283a 	ret

00041ccc <top>:
float a=0.1; // the top scale factor

int top(int adc_value,int order, UnlimitedSamplerReconstructor *recon, MovingAverage *ma1,MovingAverage *ma2,MovingAverage *ma3  ){
   41ccc:	defff504 	addi	sp,sp,-44
   41cd0:	dfc00a15 	stw	ra,40(sp)
   41cd4:	df000915 	stw	fp,36(sp)
   41cd8:	df000904 	addi	fp,sp,36
   41cdc:	e13ffc15 	stw	r4,-16(fp)
   41ce0:	e17ffd15 	stw	r5,-12(fp)
   41ce4:	e1bffe15 	stw	r6,-8(fp)
   41ce8:	e1ffff15 	stw	r7,-4(fp)

	float signal_in=convert_adc_to_signal(adc_value,4095,4.096,0);
   41cec:	000f883a 	mov	r7,zero
   41cf0:	019020f4 	movhi	r6,16515
   41cf4:	31849bc4 	addi	r6,r6,4719
   41cf8:	0143ffc4 	movi	r5,4095
   41cfc:	e13ffc17 	ldw	r4,-16(fp)
   41d00:	004194c0 	call	4194c <convert_adc_to_signal>
   41d04:	e0bff915 	stw	r2,-28(fp)
	float reconstructed_val=update(recon,order, signal_in,ma1,ma2,ma3)*a;
   41d08:	e0800317 	ldw	r2,12(fp)
   41d0c:	d8800115 	stw	r2,4(sp)
   41d10:	e0800217 	ldw	r2,8(fp)
   41d14:	d8800015 	stw	r2,0(sp)
   41d18:	e1ffff17 	ldw	r7,-4(fp)
   41d1c:	e1bff917 	ldw	r6,-28(fp)
   41d20:	e17ffd17 	ldw	r5,-12(fp)
   41d24:	e13ffe17 	ldw	r4,-8(fp)
   41d28:	00416f40 	call	416f4 <update>
   41d2c:	1007883a 	mov	r3,r2
   41d30:	d0a00217 	ldw	r2,-32760(gp)
   41d34:	100b883a 	mov	r5,r2
   41d38:	1809883a 	mov	r4,r3
   41d3c:	0043dc00 	call	43dc0 <__mulsf3>
   41d40:	1007883a 	mov	r3,r2
   41d44:	e0fffa15 	stw	r3,-24(fp)
//	reconstructed_val=reconstructed_val-avg;
//	reconstructed_val=process_lowpass(reconstructed_val);
//	avg = updateMovingAverage(ma2, reconstructed_val);
//	int dac_out=float_to_dac(reconstructed_val-avg,255,5,1.5);

	int dac_out=float_to_dac(reconstructed_val,255,5,1.5);
   41d48:	01cff034 	movhi	r7,16320
   41d4c:	01902834 	movhi	r6,16544
   41d50:	01403fc4 	movi	r5,255
   41d54:	e13ffa17 	ldw	r4,-24(fp)
   41d58:	00419e80 	call	419e8 <float_to_dac>
   41d5c:	10803fcc 	andi	r2,r2,255
   41d60:	e0bffb15 	stw	r2,-20(fp)

	//int dac_out=float_to_dac(signal_in,255,5,1.5);

	return dac_out;
   41d64:	e0bffb17 	ldw	r2,-20(fp)
}
   41d68:	e037883a 	mov	sp,fp
   41d6c:	dfc00117 	ldw	ra,4(sp)
   41d70:	df000017 	ldw	fp,0(sp)
   41d74:	dec00204 	addi	sp,sp,8
   41d78:	f800283a 	ret

00041d7c <stream_adc_out>:
int stream_adc_out(int adc_value ){
   41d7c:	defffb04 	addi	sp,sp,-20
   41d80:	dfc00415 	stw	ra,16(sp)
   41d84:	df000315 	stw	fp,12(sp)
   41d88:	df000304 	addi	fp,sp,12
   41d8c:	e13fff15 	stw	r4,-4(fp)

	float signal_in=convert_adc_to_signal(adc_value,4095,4.096,0);
   41d90:	000f883a 	mov	r7,zero
   41d94:	019020f4 	movhi	r6,16515
   41d98:	31849bc4 	addi	r6,r6,4719
   41d9c:	0143ffc4 	movi	r5,4095
   41da0:	e13fff17 	ldw	r4,-4(fp)
   41da4:	004194c0 	call	4194c <convert_adc_to_signal>
   41da8:	e0bffd15 	stw	r2,-12(fp)


	int dac_out=float_to_dac(signal_in,255,5,0);
   41dac:	000f883a 	mov	r7,zero
   41db0:	01902834 	movhi	r6,16544
   41db4:	01403fc4 	movi	r5,255
   41db8:	e13ffd17 	ldw	r4,-12(fp)
   41dbc:	00419e80 	call	419e8 <float_to_dac>
   41dc0:	10803fcc 	andi	r2,r2,255
   41dc4:	e0bffe15 	stw	r2,-8(fp)

	return dac_out;
   41dc8:	e0bffe17 	ldw	r2,-8(fp)
}
   41dcc:	e037883a 	mov	sp,fp
   41dd0:	dfc00117 	ldw	ra,4(sp)
   41dd4:	df000017 	ldw	fp,0(sp)
   41dd8:	dec00204 	addi	sp,sp,8
   41ddc:	f800283a 	ret

00041de0 <main>:



void main(void){
   41de0:	def6db04 	addi	sp,sp,-9364
   41de4:	dfc92415 	stw	ra,9360(sp)
   41de8:	df092315 	stw	fp,9356(sp)
   41dec:	df092304 	addi	fp,sp,9356
//	printf("running \n");
	int sample_max=10000;
   41df0:	0089c404 	movi	r2,10000
   41df4:	e0b6df15 	stw	r2,-9348(fp)
	int sample_written=0;
   41df8:	e036e015 	stw	zero,-9344(fp)
//    if (!fp) {
//        printf("Failed to open file on host\n");
//    }


	int ch = 0;
   41dfc:	e036e115 	stw	zero,-9340(fp)
	const int nReadNum = 1; // max 1024
   41e00:	00800044 	movi	r2,1
   41e04:	e0b6e215 	stw	r2,-9336(fp)
	int i, ADC_value, nIndex=0;
   41e08:	e036e315 	stw	zero,-9332(fp)
	uint16_t DAC_val=0;
   41e0c:	e036e40d 	sth	zero,-9328(fp)
	float signal_val, reconstructed_val=0;
   41e10:	e036e515 	stw	zero,-9324(fp)
//	printf("ADC Demo\r\n");
    ALT_AVALON_I2C_DEV_t *i2c_dev;  // Pointer to I2C instance structure
   // int adc_value = 0;             // Example ADC value to send
    int result;
    float lam = 1.1;
   41e14:	008fe374 	movhi	r2,16269
   41e18:	10b33344 	addi	r2,r2,-13107
   41e1c:	e0b6e615 	stw	r2,-9320(fp)
	int downsample_ratio=1; // to downsample,this reads a sample every n adc samples
   41e20:	00800044 	movi	r2,1
   41e24:	e0b6e715 	stw	r2,-9316(fp)
	int count=1;
   41e28:	00800044 	movi	r2,1
   41e2c:	e0b6de15 	stw	r2,-9352(fp)
    UnlimitedSamplerReconstructor recon;
    initReconstructor(&recon, lam);
   41e30:	e0b6eb04 	addi	r2,fp,-9300
   41e34:	e176e617 	ldw	r5,-9320(fp)
   41e38:	1009883a 	mov	r4,r2
   41e3c:	00404340 	call	40434 <initReconstructor>

    MovingAverage ma;
    initMovingAverage(&ma);
   41e40:	e0bec704 	addi	r2,fp,-1252
   41e44:	1009883a 	mov	r4,r2
   41e48:	00402900 	call	40290 <initMovingAverage>
    MovingAverage ma2;
    initMovingAverage(&ma2);
   41e4c:	e0bf2e04 	addi	r2,fp,-840
   41e50:	1009883a 	mov	r4,r2
   41e54:	00402900 	call	40290 <initMovingAverage>
    MovingAverage ma3;
    initMovingAverage(&ma3);
   41e58:	e0bf9504 	addi	r2,fp,-428
   41e5c:	1009883a 	mov	r4,r2
   41e60:	00402900 	call	40290 <initMovingAverage>

    i2c_dev = alt_avalon_i2c_open("/dev/i2c_dac");
   41e64:	01000174 	movhi	r4,5
   41e68:	2116ca04 	addi	r4,r4,23336
   41e6c:	0051f500 	call	51f50 <alt_avalon_i2c_open>
   41e70:	e0b6e815 	stw	r2,-9312(fp)
    if (NULL == i2c_dev) {
   41e74:	e0b6e817 	ldw	r2,-9312(fp)
   41e78:	1000041e 	bne	r2,zero,41e8c <main+0xac>
        printf("Error: Cannot find /dev/i2c_dac\n");
   41e7c:	01000174 	movhi	r4,5
   41e80:	2116ce04 	addi	r4,r4,23352
   41e84:	00470f40 	call	470f4 <puts>
        return ;
   41e88:	00005106 	br	41fd0 <main+0x1f0>
    }
    ALT_AVALON_I2C_MASTER_CONFIG_t cfg;


    // Set the target device address (PCF8591T address is typically 0x48)
    alt_avalon_i2c_master_target_set(i2c_dev, 0x48);
   41e8c:	01401204 	movi	r5,72
   41e90:	e136e817 	ldw	r4,-9312(fp)
   41e94:	00527200 	call	52720 <alt_avalon_i2c_master_target_set>
//    alt_avalon_i2c_master_config_set(i2c_dev, &cfg);
//     alt_avalon_i2c_master_target_set(i2c_dev, 0x72);
     if (i2c_dev) {
   41e98:	e0b6e817 	ldw	r2,-9312(fp)
   41e9c:	10000d26 	beq	r2,zero,41ed4 <main+0xf4>
    	 printf("DAC CONNECTED\n");
   41ea0:	01000174 	movhi	r4,5
   41ea4:	2116d604 	addi	r4,r4,23384
   41ea8:	00470f40 	call	470f4 <puts>
         alt_avalon_i2c_master_config_speed_set(i2c_dev,&cfg, 400000); // Set 400 kHz
   41eac:	e0bffc04 	addi	r2,fp,-16
   41eb0:	018001b4 	movhi	r6,6
   41eb4:	3186a004 	addi	r6,r6,6784
   41eb8:	100b883a 	mov	r5,r2
   41ebc:	e136e817 	ldw	r4,-9312(fp)
   41ec0:	00522840 	call	52284 <alt_avalon_i2c_master_config_speed_set>
         alt_avalon_i2c_master_config_set(i2c_dev, &cfg);
   41ec4:	e0bffc04 	addi	r2,fp,-16
   41ec8:	100b883a 	mov	r5,r2
   41ecc:	e136e817 	ldw	r4,-9312(fp)
   41ed0:	00521240 	call	52124 <alt_avalon_i2c_master_config_set>
     }



    IOWR(ADC_LTC2308_BASE, 0x01, nReadNum);
   41ed4:	00800234 	movhi	r2,8
   41ed8:	10841d04 	addi	r2,r2,4212
   41edc:	e0f6e217 	ldw	r3,-9336(fp)
   41ee0:	10c00035 	stwio	r3,0(r2)

	while(1){

		// start measure
		IOWR(ADC_LTC2308_BASE, 0x00, (ch << 1) | 0x00);
   41ee4:	e0b6e117 	ldw	r2,-9340(fp)
   41ee8:	1085883a 	add	r2,r2,r2
   41eec:	1007883a 	mov	r3,r2
   41ef0:	00800234 	movhi	r2,8
   41ef4:	10841c04 	addi	r2,r2,4208
   41ef8:	10c00035 	stwio	r3,0(r2)
		IOWR(ADC_LTC2308_BASE, 0x00, (ch << 1) | 0x01);
   41efc:	e0b6e117 	ldw	r2,-9340(fp)
   41f00:	1085883a 	add	r2,r2,r2
   41f04:	10c00054 	ori	r3,r2,1
   41f08:	00800234 	movhi	r2,8
   41f0c:	10841c04 	addi	r2,r2,4208
   41f10:	10c00035 	stwio	r3,0(r2)
		IOWR(ADC_LTC2308_BASE, 0x00, (ch << 1) | 0x00);
   41f14:	e0b6e117 	ldw	r2,-9340(fp)
   41f18:	1085883a 	add	r2,r2,r2
   41f1c:	1007883a 	mov	r3,r2
   41f20:	00800234 	movhi	r2,8
   41f24:	10841c04 	addi	r2,r2,4208
   41f28:	10c00035 	stwio	r3,0(r2)
		// wait measure done
//		while ((IORD(ADC_LTC2308_BASE,0x00) & 0x01) == 0x00);

		// read adc value

		for(i=0;i<nReadNum;i+=1){
   41f2c:	e036dd15 	stw	zero,-9356(fp)
   41f30:	00002306 	br	41fc0 <main+0x1e0>
			if (count<downsample_ratio){
   41f34:	e0f6de17 	ldw	r3,-9352(fp)
   41f38:	e0b6e717 	ldw	r2,-9316(fp)
   41f3c:	1880070e 	bge	r3,r2,41f5c <main+0x17c>
				count+=1;
   41f40:	e0b6de17 	ldw	r2,-9352(fp)
   41f44:	10800044 	addi	r2,r2,1
   41f48:	e0b6de15 	stw	r2,-9352(fp)
				IORD(ADC_LTC2308_BASE, 0x01);
   41f4c:	00800234 	movhi	r2,8
   41f50:	10841d04 	addi	r2,r2,4212
   41f54:	10800037 	ldwio	r2,0(r2)
   41f58:	00001606 	br	41fb4 <main+0x1d4>

			}
			else{
				count=1;
   41f5c:	00800044 	movi	r2,1
   41f60:	e0b6de15 	stw	r2,-9352(fp)
// save adc sampled files to text file, run in debug mode.

				ADC_value = IORD(ADC_LTC2308_BASE, 0x01);
   41f64:	00800234 	movhi	r2,8
   41f68:	10841d04 	addi	r2,r2,4212
   41f6c:	10800037 	ldwio	r2,0(r2)
   41f70:	e0b6e915 	stw	r2,-9308(fp)

//			    printf("calculated adc_VAL %d.\n", ADC_value);

// baseline pipelined models

				DAC_val=ALT_CI_RECON_PIPE_1_0(ADC_value,0);
   41f74:	e0b6e917 	ldw	r2,-9308(fp)
   41f78:	0007883a 	mov	r3,zero
   41f7c:	10c5c072 	custom	1,r2,r2,r3
   41f80:	e0b6e40d 	sth	r2,-9328(fp)
//				DAC_val=ALT_CI_RECON_PIPE_N_0(ADC_value,2);

//				printf("calculated dac_VAL %d.\n", DAC_val);


				result = send_to_PCF(i2c_dev, DAC_val);
   41f84:	e0b6e40b 	ldhu	r2,-9328(fp)
   41f88:	10803fcc 	andi	r2,r2,255
   41f8c:	100b883a 	mov	r5,r2
   41f90:	e136e817 	ldw	r4,-9312(fp)
   41f94:	0041aac0 	call	41aac <send_to_PCF>
   41f98:	e0b6ea15 	stw	r2,-9304(fp)
				//	        result = send_to_PCF(i2c_dev, (8)Value);
				////			result = send_to_LTC2607(i2c_dev,0, (alt_u16)Value);
				if (result != 0) {
   41f9c:	e0b6ea17 	ldw	r2,-9304(fp)
   41fa0:	10000426 	beq	r2,zero,41fb4 <main+0x1d4>
					printf("Failed to send data to DAC.\n");
   41fa4:	01000174 	movhi	r4,5
   41fa8:	2116da04 	addi	r4,r4,23400
   41fac:	00470f40 	call	470f4 <puts>
					break;
   41fb0:	00000606 	br	41fcc <main+0x1ec>
		// wait measure done
//		while ((IORD(ADC_LTC2308_BASE,0x00) & 0x01) == 0x00);

		// read adc value

		for(i=0;i<nReadNum;i+=1){
   41fb4:	e0b6dd17 	ldw	r2,-9356(fp)
   41fb8:	10800044 	addi	r2,r2,1
   41fbc:	e0b6dd15 	stw	r2,-9356(fp)
   41fc0:	e0f6dd17 	ldw	r3,-9356(fp)
   41fc4:	e0b6e217 	ldw	r2,-9336(fp)
   41fc8:	18bfda16 	blt	r3,r2,41f34 <__alt_data_end+0xfffdae34>
			}



	}
	}
   41fcc:	003fc506 	br	41ee4 <__alt_data_end+0xfffdade4>
}
   41fd0:	e037883a 	mov	sp,fp
   41fd4:	dfc00117 	ldw	ra,4(sp)
   41fd8:	df000017 	ldw	fp,0(sp)
   41fdc:	dec00204 	addi	sp,sp,8
   41fe0:	f800283a 	ret

00041fe4 <ceil>:
   41fe4:	2811d53a 	srai	r8,r5,20
   41fe8:	defffa04 	addi	sp,sp,-24
   41fec:	dcc00315 	stw	r19,12(sp)
   41ff0:	4201ffcc 	andi	r8,r8,2047
   41ff4:	dc800215 	stw	r18,8(sp)
   41ff8:	dc400115 	stw	r17,4(sp)
   41ffc:	dc000015 	stw	r16,0(sp)
   42000:	dfc00515 	stw	ra,20(sp)
   42004:	dd000415 	stw	r20,16(sp)
   42008:	44bf0044 	addi	r18,r8,-1023
   4200c:	018004c4 	movi	r6,19
   42010:	2821883a 	mov	r16,r5
   42014:	2005883a 	mov	r2,r4
   42018:	280f883a 	mov	r7,r5
   4201c:	2827883a 	mov	r19,r5
   42020:	2023883a 	mov	r17,r4
   42024:	34801c16 	blt	r6,r18,42098 <ceil+0xb4>
   42028:	90004916 	blt	r18,zero,42150 <ceil+0x16c>
   4202c:	05000434 	movhi	r20,16
   42030:	a53fffc4 	addi	r20,r20,-1
   42034:	a4a9d83a 	sra	r20,r20,r18
   42038:	2d0c703a 	and	r6,r5,r20
   4203c:	310cb03a 	or	r6,r6,r4
   42040:	30001926 	beq	r6,zero,420a8 <ceil+0xc4>
   42044:	01a20034 	movhi	r6,34816
   42048:	01df8e34 	movhi	r7,32312
   4204c:	319d6704 	addi	r6,r6,30108
   42050:	39f90f04 	addi	r7,r7,-7108
   42054:	00448340 	call	44834 <__adddf3>
   42058:	000d883a 	mov	r6,zero
   4205c:	000f883a 	mov	r7,zero
   42060:	1009883a 	mov	r4,r2
   42064:	180b883a 	mov	r5,r3
   42068:	0045a500 	call	45a50 <__gedf2>
   4206c:	0080070e 	bge	zero,r2,4208c <ceil+0xa8>
   42070:	0400030e 	bge	zero,r16,42080 <ceil+0x9c>
   42074:	00800434 	movhi	r2,16
   42078:	14a5d83a 	sra	r18,r2,r18
   4207c:	84a7883a 	add	r19,r16,r18
   42080:	0520303a 	nor	r16,zero,r20
   42084:	84e0703a 	and	r16,r16,r19
   42088:	0023883a 	mov	r17,zero
   4208c:	8805883a 	mov	r2,r17
   42090:	8007883a 	mov	r3,r16
   42094:	00000506 	br	420ac <ceil+0xc8>
   42098:	01800cc4 	movi	r6,51
   4209c:	34800b0e 	bge	r6,r18,420cc <ceil+0xe8>
   420a0:	01810004 	movi	r6,1024
   420a4:	91803b26 	beq	r18,r6,42194 <ceil+0x1b0>
   420a8:	3807883a 	mov	r3,r7
   420ac:	dfc00517 	ldw	ra,20(sp)
   420b0:	dd000417 	ldw	r20,16(sp)
   420b4:	dcc00317 	ldw	r19,12(sp)
   420b8:	dc800217 	ldw	r18,8(sp)
   420bc:	dc400117 	ldw	r17,4(sp)
   420c0:	dc000017 	ldw	r16,0(sp)
   420c4:	dec00604 	addi	sp,sp,24
   420c8:	f800283a 	ret
   420cc:	423efb44 	addi	r8,r8,-1043
   420d0:	053fffc4 	movi	r20,-1
   420d4:	a228d83a 	srl	r20,r20,r8
   420d8:	250c703a 	and	r6,r4,r20
   420dc:	303ff226 	beq	r6,zero,420a8 <__alt_data_end+0xfffdafa8>
   420e0:	01a20034 	movhi	r6,34816
   420e4:	01df8e34 	movhi	r7,32312
   420e8:	319d6704 	addi	r6,r6,30108
   420ec:	39f90f04 	addi	r7,r7,-7108
   420f0:	00448340 	call	44834 <__adddf3>
   420f4:	000d883a 	mov	r6,zero
   420f8:	000f883a 	mov	r7,zero
   420fc:	1009883a 	mov	r4,r2
   42100:	180b883a 	mov	r5,r3
   42104:	0045a500 	call	45a50 <__gedf2>
   42108:	00bfe00e 	bge	zero,r2,4208c <__alt_data_end+0xfffdaf8c>
   4210c:	04000a0e 	bge	zero,r16,42138 <ceil+0x154>
   42110:	00800504 	movi	r2,20
   42114:	90802926 	beq	r18,r2,421bc <ceil+0x1d8>
   42118:	00800d04 	movi	r2,52
   4211c:	14a5c83a 	sub	r18,r2,r18
   42120:	00800044 	movi	r2,1
   42124:	1484983a 	sll	r2,r2,r18
   42128:	1445883a 	add	r2,r2,r17
   4212c:	14401e2e 	bgeu	r2,r17,421a8 <ceil+0x1c4>
   42130:	84c00044 	addi	r19,r16,1
   42134:	1023883a 	mov	r17,r2
   42138:	0510303a 	nor	r8,zero,r20
   4213c:	9821883a 	mov	r16,r19
   42140:	8a22703a 	and	r17,r17,r8
   42144:	8805883a 	mov	r2,r17
   42148:	8007883a 	mov	r3,r16
   4214c:	003fd706 	br	420ac <__alt_data_end+0xfffdafac>
   42150:	01a20034 	movhi	r6,34816
   42154:	01df8e34 	movhi	r7,32312
   42158:	319d6704 	addi	r6,r6,30108
   4215c:	39f90f04 	addi	r7,r7,-7108
   42160:	00448340 	call	44834 <__adddf3>
   42164:	000d883a 	mov	r6,zero
   42168:	000f883a 	mov	r7,zero
   4216c:	1009883a 	mov	r4,r2
   42170:	180b883a 	mov	r5,r3
   42174:	0045a500 	call	45a50 <__gedf2>
   42178:	00bfc40e 	bge	zero,r2,4208c <__alt_data_end+0xfffdaf8c>
   4217c:	80000c16 	blt	r16,zero,421b0 <ceil+0x1cc>
   42180:	8460b03a 	or	r16,r16,r17
   42184:	0023883a 	mov	r17,zero
   42188:	80000526 	beq	r16,zero,421a0 <ceil+0x1bc>
   4218c:	040ffc34 	movhi	r16,16368
   42190:	003fbe06 	br	4208c <__alt_data_end+0xfffdaf8c>
   42194:	200d883a 	mov	r6,r4
   42198:	00448340 	call	44834 <__adddf3>
   4219c:	003fc306 	br	420ac <__alt_data_end+0xfffdafac>
   421a0:	0021883a 	mov	r16,zero
   421a4:	003fb906 	br	4208c <__alt_data_end+0xfffdaf8c>
   421a8:	1023883a 	mov	r17,r2
   421ac:	003fe206 	br	42138 <__alt_data_end+0xfffdb038>
   421b0:	0023883a 	mov	r17,zero
   421b4:	04200034 	movhi	r16,32768
   421b8:	003fb406 	br	4208c <__alt_data_end+0xfffdaf8c>
   421bc:	84c00044 	addi	r19,r16,1
   421c0:	003fdd06 	br	42138 <__alt_data_end+0xfffdb038>

000421c4 <round>:
   421c4:	289ffc2c 	andhi	r2,r5,32752
   421c8:	1005d53a 	srai	r2,r2,20
   421cc:	024004c4 	movi	r9,19
   421d0:	2807883a 	mov	r3,r5
   421d4:	123f0044 	addi	r8,r2,-1023
   421d8:	200d883a 	mov	r6,r4
   421dc:	280f883a 	mov	r7,r5
   421e0:	4a000916 	blt	r9,r8,42208 <round+0x44>
   421e4:	40002516 	blt	r8,zero,4227c <round+0xb8>
   421e8:	00800434 	movhi	r2,16
   421ec:	10bfffc4 	addi	r2,r2,-1
   421f0:	1205d83a 	sra	r2,r2,r8
   421f4:	2888703a 	and	r4,r5,r2
   421f8:	2000181e 	bne	r4,zero,4225c <round+0x98>
   421fc:	3000171e 	bne	r6,zero,4225c <round+0x98>
   42200:	0005883a 	mov	r2,zero
   42204:	f800283a 	ret
   42208:	02400cc4 	movi	r9,51
   4220c:	4a00040e 	bge	r9,r8,42220 <round+0x5c>
   42210:	00810004 	movi	r2,1024
   42214:	40802126 	beq	r8,r2,4229c <round+0xd8>
   42218:	3005883a 	mov	r2,r6
   4221c:	f800283a 	ret
   42220:	013fffc4 	movi	r4,-1
   42224:	10befb44 	addi	r2,r2,-1043
   42228:	2084d83a 	srl	r2,r4,r2
   4222c:	3088703a 	and	r4,r6,r2
   42230:	20001726 	beq	r4,zero,42290 <round+0xcc>
   42234:	4a11c83a 	sub	r8,r9,r8
   42238:	02400044 	movi	r9,1
   4223c:	4a10983a 	sll	r8,r9,r8
   42240:	4191883a 	add	r8,r8,r6
   42244:	4180012e 	bgeu	r8,r6,4224c <round+0x88>
   42248:	2a47883a 	add	r3,r5,r9
   4224c:	0084303a 	nor	r2,zero,r2
   42250:	120c703a 	and	r6,r2,r8
   42254:	3005883a 	mov	r2,r6
   42258:	f800283a 	ret
   4225c:	00c00234 	movhi	r3,8
   42260:	1a07d83a 	sra	r3,r3,r8
   42264:	0084303a 	nor	r2,zero,r2
   42268:	000d883a 	mov	r6,zero
   4226c:	19c7883a 	add	r3,r3,r7
   42270:	1886703a 	and	r3,r3,r2
   42274:	3005883a 	mov	r2,r6
   42278:	f800283a 	ret
   4227c:	00bfffc4 	movi	r2,-1
   42280:	28e0002c 	andhi	r3,r5,32768
   42284:	40800c26 	beq	r8,r2,422b8 <round+0xf4>
   42288:	000d883a 	mov	r6,zero
   4228c:	003fe206 	br	42218 <__alt_data_end+0xfffdb118>
   42290:	3005883a 	mov	r2,r6
   42294:	2807883a 	mov	r3,r5
   42298:	f800283a 	ret
   4229c:	deffff04 	addi	sp,sp,-4
   422a0:	280f883a 	mov	r7,r5
   422a4:	dfc00015 	stw	ra,0(sp)
   422a8:	00448340 	call	44834 <__adddf3>
   422ac:	dfc00017 	ldw	ra,0(sp)
   422b0:	dec00104 	addi	sp,sp,4
   422b4:	f800283a 	ret
   422b8:	18cffc34 	orhi	r3,r3,16368
   422bc:	000d883a 	mov	r6,zero
   422c0:	003fd506 	br	42218 <__alt_data_end+0xfffdb118>

000422c4 <roundf>:
   422c4:	20dfe02c 	andhi	r3,r4,32640
   422c8:	1806d5fa 	srli	r3,r3,23
   422cc:	01400584 	movi	r5,22
   422d0:	2005883a 	mov	r2,r4
   422d4:	18ffe044 	addi	r3,r3,-127
   422d8:	28c00c16 	blt	r5,r3,4230c <roundf+0x48>
   422dc:	18001516 	blt	r3,zero,42334 <roundf+0x70>
   422e0:	01002034 	movhi	r4,128
   422e4:	213fffc4 	addi	r4,r4,-1
   422e8:	20c9d83a 	sra	r4,r4,r3
   422ec:	208a703a 	and	r5,r4,r2
   422f0:	28000826 	beq	r5,zero,42314 <roundf+0x50>
   422f4:	01401034 	movhi	r5,64
   422f8:	28c7d83a 	sra	r3,r5,r3
   422fc:	0108303a 	nor	r4,zero,r4
   42300:	1885883a 	add	r2,r3,r2
   42304:	2084703a 	and	r2,r4,r2
   42308:	f800283a 	ret
   4230c:	01402004 	movi	r5,128
   42310:	19400126 	beq	r3,r5,42318 <roundf+0x54>
   42314:	f800283a 	ret
   42318:	deffff04 	addi	sp,sp,-4
   4231c:	200b883a 	mov	r5,r4
   42320:	dfc00015 	stw	ra,0(sp)
   42324:	00433340 	call	43334 <__addsf3>
   42328:	dfc00017 	ldw	ra,0(sp)
   4232c:	dec00104 	addi	sp,sp,4
   42330:	f800283a 	ret
   42334:	20a0002c 	andhi	r2,r4,32768
   42338:	013fffc4 	movi	r4,-1
   4233c:	193ff51e 	bne	r3,r4,42314 <__alt_data_end+0xfffdb214>
   42340:	108fe034 	orhi	r2,r2,16256
   42344:	f800283a 	ret

00042348 <fmod>:
   42348:	deffef04 	addi	sp,sp,-68
   4234c:	dc400a15 	stw	r17,40(sp)
   42350:	04400174 	movhi	r17,5
   42354:	dd800f15 	stw	r22,60(sp)
   42358:	dd400e15 	stw	r21,56(sp)
   4235c:	dd000d15 	stw	r20,52(sp)
   42360:	dcc00c15 	stw	r19,48(sp)
   42364:	dc800b15 	stw	r18,44(sp)
   42368:	dc000915 	stw	r16,36(sp)
   4236c:	202b883a 	mov	r21,r4
   42370:	dfc01015 	stw	ra,64(sp)
   42374:	8c5e6e04 	addi	r17,r17,31160
   42378:	2829883a 	mov	r20,r5
   4237c:	3027883a 	mov	r19,r6
   42380:	3825883a 	mov	r18,r7
   42384:	004263c0 	call	4263c <__ieee754_fmod>
   42388:	89000017 	ldw	r4,0(r17)
   4238c:	1021883a 	mov	r16,r2
   42390:	00bfffc4 	movi	r2,-1
   42394:	182d883a 	mov	r22,r3
   42398:	20800426 	beq	r4,r2,423ac <fmod+0x64>
   4239c:	9809883a 	mov	r4,r19
   423a0:	900b883a 	mov	r5,r18
   423a4:	00430980 	call	43098 <__fpclassifyd>
   423a8:	10000c1e 	bne	r2,zero,423dc <fmod+0x94>
   423ac:	8005883a 	mov	r2,r16
   423b0:	b007883a 	mov	r3,r22
   423b4:	dfc01017 	ldw	ra,64(sp)
   423b8:	dd800f17 	ldw	r22,60(sp)
   423bc:	dd400e17 	ldw	r21,56(sp)
   423c0:	dd000d17 	ldw	r20,52(sp)
   423c4:	dcc00c17 	ldw	r19,48(sp)
   423c8:	dc800b17 	ldw	r18,44(sp)
   423cc:	dc400a17 	ldw	r17,40(sp)
   423d0:	dc000917 	ldw	r16,36(sp)
   423d4:	dec01104 	addi	sp,sp,68
   423d8:	f800283a 	ret
   423dc:	a809883a 	mov	r4,r21
   423e0:	a00b883a 	mov	r5,r20
   423e4:	00430980 	call	43098 <__fpclassifyd>
   423e8:	103ff026 	beq	r2,zero,423ac <__alt_data_end+0xfffdb2ac>
   423ec:	000d883a 	mov	r6,zero
   423f0:	000f883a 	mov	r7,zero
   423f4:	9809883a 	mov	r4,r19
   423f8:	900b883a 	mov	r5,r18
   423fc:	00459c80 	call	459c8 <__eqdf2>
   42400:	103fea1e 	bne	r2,zero,423ac <__alt_data_end+0xfffdb2ac>
   42404:	00800044 	movi	r2,1
   42408:	d8800015 	stw	r2,0(sp)
   4240c:	8c000017 	ldw	r16,0(r17)
   42410:	00800174 	movhi	r2,5
   42414:	1096e104 	addi	r2,r2,23428
   42418:	d8800115 	stw	r2,4(sp)
   4241c:	dd400215 	stw	r21,8(sp)
   42420:	dd000315 	stw	r20,12(sp)
   42424:	dcc00415 	stw	r19,16(sp)
   42428:	dc800515 	stw	r18,20(sp)
   4242c:	d8000815 	stw	zero,32(sp)
   42430:	80001126 	beq	r16,zero,42478 <fmod+0x130>
   42434:	000d883a 	mov	r6,zero
   42438:	000f883a 	mov	r7,zero
   4243c:	0009883a 	mov	r4,zero
   42440:	000b883a 	mov	r5,zero
   42444:	00450e00 	call	450e0 <__divdf3>
   42448:	d8800615 	stw	r2,24(sp)
   4244c:	d8c00715 	stw	r3,28(sp)
   42450:	00800084 	movi	r2,2
   42454:	80800a1e 	bne	r16,r2,42480 <fmod+0x138>
   42458:	0046fb80 	call	46fb8 <__errno>
   4245c:	00c00844 	movi	r3,33
   42460:	10c00015 	stw	r3,0(r2)
   42464:	d8800817 	ldw	r2,32(sp)
   42468:	1000091e 	bne	r2,zero,42490 <fmod+0x148>
   4246c:	d8800617 	ldw	r2,24(sp)
   42470:	d8c00717 	ldw	r3,28(sp)
   42474:	003fcf06 	br	423b4 <__alt_data_end+0xfffdb2b4>
   42478:	dd400615 	stw	r21,24(sp)
   4247c:	dd000715 	stw	r20,28(sp)
   42480:	d809883a 	mov	r4,sp
   42484:	004310c0 	call	4310c <matherr>
   42488:	103ff61e 	bne	r2,zero,42464 <__alt_data_end+0xfffdb364>
   4248c:	003ff206 	br	42458 <__alt_data_end+0xfffdb358>
   42490:	0046fb80 	call	46fb8 <__errno>
   42494:	d8c00817 	ldw	r3,32(sp)
   42498:	10c00015 	stw	r3,0(r2)
   4249c:	003ff306 	br	4246c <__alt_data_end+0xfffdb36c>

000424a0 <log>:
   424a0:	defff104 	addi	sp,sp,-60
   424a4:	dd000d15 	stw	r20,52(sp)
   424a8:	05000174 	movhi	r20,5
   424ac:	dcc00c15 	stw	r19,48(sp)
   424b0:	dc800b15 	stw	r18,44(sp)
   424b4:	dc400a15 	stw	r17,40(sp)
   424b8:	dc000915 	stw	r16,36(sp)
   424bc:	dfc00e15 	stw	ra,56(sp)
   424c0:	a51e6e04 	addi	r20,r20,31160
   424c4:	2027883a 	mov	r19,r4
   424c8:	2825883a 	mov	r18,r5
   424cc:	004297c0 	call	4297c <__ieee754_log>
   424d0:	1821883a 	mov	r16,r3
   424d4:	a0c00017 	ldw	r3,0(r20)
   424d8:	1023883a 	mov	r17,r2
   424dc:	00bfffc4 	movi	r2,-1
   424e0:	18800a26 	beq	r3,r2,4250c <log+0x6c>
   424e4:	9809883a 	mov	r4,r19
   424e8:	900b883a 	mov	r5,r18
   424ec:	00430980 	call	43098 <__fpclassifyd>
   424f0:	10000626 	beq	r2,zero,4250c <log+0x6c>
   424f4:	000d883a 	mov	r6,zero
   424f8:	000f883a 	mov	r7,zero
   424fc:	9809883a 	mov	r4,r19
   42500:	900b883a 	mov	r5,r18
   42504:	0045a500 	call	45a50 <__gedf2>
   42508:	00800a0e 	bge	zero,r2,42534 <log+0x94>
   4250c:	8805883a 	mov	r2,r17
   42510:	8007883a 	mov	r3,r16
   42514:	dfc00e17 	ldw	ra,56(sp)
   42518:	dd000d17 	ldw	r20,52(sp)
   4251c:	dcc00c17 	ldw	r19,48(sp)
   42520:	dc800b17 	ldw	r18,44(sp)
   42524:	dc400a17 	ldw	r17,40(sp)
   42528:	dc000917 	ldw	r16,36(sp)
   4252c:	dec00f04 	addi	sp,sp,60
   42530:	f800283a 	ret
   42534:	00800174 	movhi	r2,5
   42538:	a4000017 	ldw	r16,0(r20)
   4253c:	1096e304 	addi	r2,r2,23436
   42540:	d8000815 	stw	zero,32(sp)
   42544:	d8800115 	stw	r2,4(sp)
   42548:	dcc00215 	stw	r19,8(sp)
   4254c:	dc800315 	stw	r18,12(sp)
   42550:	dcc00415 	stw	r19,16(sp)
   42554:	dc800515 	stw	r18,20(sp)
   42558:	000d883a 	mov	r6,zero
   4255c:	000f883a 	mov	r7,zero
   42560:	9809883a 	mov	r4,r19
   42564:	900b883a 	mov	r5,r18
   42568:	8000101e 	bne	r16,zero,425ac <log+0x10c>
   4256c:	00b80034 	movhi	r2,57344
   42570:	d8800615 	stw	r2,24(sp)
   42574:	00b1fc34 	movhi	r2,51184
   42578:	10bfffc4 	addi	r2,r2,-1
   4257c:	d8800715 	stw	r2,28(sp)
   42580:	00459c80 	call	459c8 <__eqdf2>
   42584:	10001f1e 	bne	r2,zero,42604 <log+0x164>
   42588:	00800084 	movi	r2,2
   4258c:	d8800015 	stw	r2,0(sp)
   42590:	d809883a 	mov	r4,sp
   42594:	004310c0 	call	4310c <matherr>
   42598:	1000151e 	bne	r2,zero,425f0 <log+0x150>
   4259c:	0046fb80 	call	46fb8 <__errno>
   425a0:	00c00884 	movi	r3,34
   425a4:	10c00015 	stw	r3,0(r2)
   425a8:	00001106 	br	425f0 <log+0x150>
   425ac:	00bffc34 	movhi	r2,65520
   425b0:	d8000615 	stw	zero,24(sp)
   425b4:	d8800715 	stw	r2,28(sp)
   425b8:	00459c80 	call	459c8 <__eqdf2>
   425bc:	10001726 	beq	r2,zero,4261c <log+0x17c>
   425c0:	00800044 	movi	r2,1
   425c4:	d8800015 	stw	r2,0(sp)
   425c8:	00800084 	movi	r2,2
   425cc:	80800f1e 	bne	r16,r2,4260c <log+0x16c>
   425d0:	0046fb80 	call	46fb8 <__errno>
   425d4:	00c00844 	movi	r3,33
   425d8:	10c00015 	stw	r3,0(r2)
   425dc:	01000174 	movhi	r4,5
   425e0:	21173204 	addi	r4,r4,23752
   425e4:	00431140 	call	43114 <nan>
   425e8:	d8800615 	stw	r2,24(sp)
   425ec:	d8c00715 	stw	r3,28(sp)
   425f0:	d8800817 	ldw	r2,32(sp)
   425f4:	10000d1e 	bne	r2,zero,4262c <log+0x18c>
   425f8:	d8800617 	ldw	r2,24(sp)
   425fc:	d8c00717 	ldw	r3,28(sp)
   42600:	003fc406 	br	42514 <__alt_data_end+0xfffdb414>
   42604:	00800044 	movi	r2,1
   42608:	d8800015 	stw	r2,0(sp)
   4260c:	d809883a 	mov	r4,sp
   42610:	004310c0 	call	4310c <matherr>
   42614:	103ff11e 	bne	r2,zero,425dc <__alt_data_end+0xfffdb4dc>
   42618:	003fed06 	br	425d0 <__alt_data_end+0xfffdb4d0>
   4261c:	00800084 	movi	r2,2
   42620:	d8800015 	stw	r2,0(sp)
   42624:	80bfdd26 	beq	r16,r2,4259c <__alt_data_end+0xfffdb49c>
   42628:	003fd906 	br	42590 <__alt_data_end+0xfffdb490>
   4262c:	0046fb80 	call	46fb8 <__errno>
   42630:	d8c00817 	ldw	r3,32(sp)
   42634:	10c00015 	stw	r3,0(r2)
   42638:	003fef06 	br	425f8 <__alt_data_end+0xfffdb4f8>

0004263c <__ieee754_fmod>:
   4263c:	00a00034 	movhi	r2,32768
   42640:	10bfffc4 	addi	r2,r2,-1
   42644:	deffff04 	addi	sp,sp,-4
   42648:	3896703a 	and	r11,r7,r2
   4264c:	dfc00015 	stw	ra,0(sp)
   42650:	32c4b03a 	or	r2,r6,r11
   42654:	10001926 	beq	r2,zero,426bc <__ieee754_fmod+0x80>
   42658:	28e0002c 	andhi	r3,r5,32768
   4265c:	025ffc34 	movhi	r9,32752
   42660:	28d8f03a 	xor	r12,r5,r3
   42664:	4a7fffc4 	addi	r9,r9,-1
   42668:	4b001416 	blt	r9,r12,426bc <__ieee754_fmod+0x80>
   4266c:	0185c83a 	sub	r2,zero,r6
   42670:	1184b03a 	or	r2,r2,r6
   42674:	1004d7fa 	srli	r2,r2,31
   42678:	025ffc34 	movhi	r9,32752
   4267c:	12c4b03a 	or	r2,r2,r11
   42680:	48800e36 	bltu	r9,r2,426bc <__ieee754_fmod+0x80>
   42684:	2011883a 	mov	r8,r4
   42688:	301d883a 	mov	r14,r6
   4268c:	5b001416 	blt	r11,r12,426e0 <__ieee754_fmod+0xa4>
   42690:	62c01e16 	blt	r12,r11,4270c <__ieee754_fmod+0xd0>
   42694:	21801d36 	bltu	r4,r6,4270c <__ieee754_fmod+0xd0>
   42698:	2180111e 	bne	r4,r6,426e0 <__ieee754_fmod+0xa4>
   4269c:	1806d7fa 	srli	r3,r3,31
   426a0:	180490fa 	slli	r2,r3,3
   426a4:	00c00174 	movhi	r3,5
   426a8:	18d6e404 	addi	r3,r3,23440
   426ac:	1887883a 	add	r3,r3,r2
   426b0:	18800017 	ldw	r2,0(r3)
   426b4:	18c00117 	ldw	r3,4(r3)
   426b8:	00000606 	br	426d4 <__ieee754_fmod+0x98>
   426bc:	0045b2c0 	call	45b2c <__muldf3>
   426c0:	100d883a 	mov	r6,r2
   426c4:	180f883a 	mov	r7,r3
   426c8:	1009883a 	mov	r4,r2
   426cc:	180b883a 	mov	r5,r3
   426d0:	00450e00 	call	450e0 <__divdf3>
   426d4:	dfc00017 	ldw	ra,0(sp)
   426d8:	dec00104 	addi	sp,sp,4
   426dc:	f800283a 	ret
   426e0:	00800434 	movhi	r2,16
   426e4:	10bfffc4 	addi	r2,r2,-1
   426e8:	13000b16 	blt	r2,r12,42718 <__ieee754_fmod+0xdc>
   426ec:	6000741e 	bne	r12,zero,428c0 <__ieee754_fmod+0x284>
   426f0:	2013883a 	mov	r9,r4
   426f4:	02befb44 	movi	r10,-1043
   426f8:	0100090e 	bge	zero,r4,42720 <__ieee754_fmod+0xe4>
   426fc:	4a53883a 	add	r9,r9,r9
   42700:	52bfffc4 	addi	r10,r10,-1
   42704:	027ffd16 	blt	zero,r9,426fc <__alt_data_end+0xfffdb5fc>
   42708:	00000506 	br	42720 <__ieee754_fmod+0xe4>
   4270c:	2005883a 	mov	r2,r4
   42710:	2807883a 	mov	r3,r5
   42714:	003fef06 	br	426d4 <__alt_data_end+0xfffdb5d4>
   42718:	6015d53a 	srai	r10,r12,20
   4271c:	52bf0044 	addi	r10,r10,-1023
   42720:	00800434 	movhi	r2,16
   42724:	10bfffc4 	addi	r2,r2,-1
   42728:	12c00816 	blt	r2,r11,4274c <__ieee754_fmod+0x110>
   4272c:	58006b1e 	bne	r11,zero,428dc <__ieee754_fmod+0x2a0>
   42730:	3013883a 	mov	r9,r6
   42734:	03fefb44 	movi	r15,-1043
   42738:	0180060e 	bge	zero,r6,42754 <__ieee754_fmod+0x118>
   4273c:	4a53883a 	add	r9,r9,r9
   42740:	7bffffc4 	addi	r15,r15,-1
   42744:	027ffd16 	blt	zero,r9,4273c <__alt_data_end+0xfffdb63c>
   42748:	00000206 	br	42754 <__ieee754_fmod+0x118>
   4274c:	581fd53a 	srai	r15,r11,20
   42750:	7bff0044 	addi	r15,r15,-1023
   42754:	00bf0084 	movi	r2,-1022
   42758:	50804d16 	blt	r10,r2,42890 <__ieee754_fmod+0x254>
   4275c:	00800434 	movhi	r2,16
   42760:	10bfffc4 	addi	r2,r2,-1
   42764:	6088703a 	and	r4,r12,r2
   42768:	21000434 	orhi	r4,r4,16
   4276c:	00bf0084 	movi	r2,-1022
   42770:	78803d16 	blt	r15,r2,42868 <__ieee754_fmod+0x22c>
   42774:	02400434 	movhi	r9,16
   42778:	4a7fffc4 	addi	r9,r9,-1
   4277c:	3a4e703a 	and	r7,r7,r9
   42780:	39800434 	orhi	r6,r7,16
   42784:	53d5c83a 	sub	r10,r10,r15
   42788:	00000406 	br	4279c <__ieee754_fmod+0x160>
   4278c:	60001126 	beq	r12,zero,427d4 <__ieee754_fmod+0x198>
   42790:	4a51883a 	add	r8,r9,r9
   42794:	6ac9883a 	add	r4,r13,r11
   42798:	52bfffc4 	addi	r10,r10,-1
   4279c:	4393c83a 	sub	r9,r8,r14
   427a0:	4816d7fa 	srli	r11,r9,31
   427a4:	50001326 	beq	r10,zero,427f4 <__ieee754_fmod+0x1b8>
   427a8:	218fc83a 	sub	r7,r4,r6
   427ac:	4380012e 	bgeu	r8,r14,427b4 <__ieee754_fmod+0x178>
   427b0:	39ffffc4 	addi	r7,r7,-1
   427b4:	3a58b03a 	or	r12,r7,r9
   427b8:	39db883a 	add	r13,r7,r7
   427bc:	383ff30e 	bge	r7,zero,4278c <__alt_data_end+0xfffdb68c>
   427c0:	4004d7fa 	srli	r2,r8,31
   427c4:	2109883a 	add	r4,r4,r4
   427c8:	4211883a 	add	r8,r8,r8
   427cc:	2089883a 	add	r4,r4,r2
   427d0:	003ff106 	br	42798 <__alt_data_end+0xfffdb698>
   427d4:	1806d7fa 	srli	r3,r3,31
   427d8:	00800174 	movhi	r2,5
   427dc:	1096e404 	addi	r2,r2,23440
   427e0:	180690fa 	slli	r3,r3,3
   427e4:	10c7883a 	add	r3,r2,r3
   427e8:	18800017 	ldw	r2,0(r3)
   427ec:	18c00117 	ldw	r3,4(r3)
   427f0:	003fb806 	br	426d4 <__alt_data_end+0xfffdb5d4>
   427f4:	218dc83a 	sub	r6,r4,r6
   427f8:	43802f36 	bltu	r8,r14,428b8 <__ieee754_fmod+0x27c>
   427fc:	30004f16 	blt	r6,zero,4293c <__ieee754_fmod+0x300>
   42800:	4391c83a 	sub	r8,r8,r14
   42804:	3204b03a 	or	r2,r6,r8
   42808:	103ff226 	beq	r2,zero,427d4 <__alt_data_end+0xfffdb6d4>
   4280c:	01000434 	movhi	r4,16
   42810:	213fffc4 	addi	r4,r4,-1
   42814:	21800616 	blt	r4,r6,42830 <__ieee754_fmod+0x1f4>
   42818:	4004d7fa 	srli	r2,r8,31
   4281c:	318d883a 	add	r6,r6,r6
   42820:	4211883a 	add	r8,r8,r8
   42824:	308d883a 	add	r6,r6,r2
   42828:	7bffffc4 	addi	r15,r15,-1
   4282c:	21bffa0e 	bge	r4,r6,42818 <__alt_data_end+0xfffdb718>
   42830:	01ff0084 	movi	r7,-1022
   42834:	79c0390e 	bge	r15,r7,4291c <__ieee754_fmod+0x2e0>
   42838:	3bcfc83a 	sub	r7,r7,r15
   4283c:	00800504 	movi	r2,20
   42840:	11c04016 	blt	r2,r7,42944 <__ieee754_fmod+0x308>
   42844:	00800804 	movi	r2,32
   42848:	11c5c83a 	sub	r2,r2,r7
   4284c:	41d0d83a 	srl	r8,r8,r7
   42850:	3084983a 	sll	r2,r6,r2
   42854:	31cfd83a 	sra	r7,r6,r7
   42858:	1208b03a 	or	r4,r2,r8
   4285c:	2005883a 	mov	r2,r4
   42860:	38c6b03a 	or	r3,r7,r3
   42864:	003f9b06 	br	426d4 <__alt_data_end+0xfffdb5d4>
   42868:	13c5c83a 	sub	r2,r2,r15
   4286c:	014007c4 	movi	r5,31
   42870:	28802516 	blt	r5,r2,42908 <__ieee754_fmod+0x2cc>
   42874:	01400804 	movi	r5,32
   42878:	288bc83a 	sub	r5,r5,r2
   4287c:	314ad83a 	srl	r5,r6,r5
   42880:	588e983a 	sll	r7,r11,r2
   42884:	309c983a 	sll	r14,r6,r2
   42888:	29ccb03a 	or	r6,r5,r7
   4288c:	003fbd06 	br	42784 <__alt_data_end+0xfffdb684>
   42890:	1285c83a 	sub	r2,r2,r10
   42894:	014007c4 	movi	r5,31
   42898:	28801616 	blt	r5,r2,428f4 <__ieee754_fmod+0x2b8>
   4289c:	02400804 	movi	r9,32
   428a0:	4893c83a 	sub	r9,r9,r2
   428a4:	2252d83a 	srl	r9,r4,r9
   428a8:	608a983a 	sll	r5,r12,r2
   428ac:	2090983a 	sll	r8,r4,r2
   428b0:	4948b03a 	or	r4,r9,r5
   428b4:	003fad06 	br	4276c <__alt_data_end+0xfffdb66c>
   428b8:	31bfffc4 	addi	r6,r6,-1
   428bc:	003fcf06 	br	427fc <__alt_data_end+0xfffdb6fc>
   428c0:	601292fa 	slli	r9,r12,11
   428c4:	02bf0084 	movi	r10,-1022
   428c8:	027f950e 	bge	zero,r9,42720 <__alt_data_end+0xfffdb620>
   428cc:	4a53883a 	add	r9,r9,r9
   428d0:	52bfffc4 	addi	r10,r10,-1
   428d4:	027ffd16 	blt	zero,r9,428cc <__alt_data_end+0xfffdb7cc>
   428d8:	003f9106 	br	42720 <__alt_data_end+0xfffdb620>
   428dc:	581292fa 	slli	r9,r11,11
   428e0:	03ff0084 	movi	r15,-1022
   428e4:	4a53883a 	add	r9,r9,r9
   428e8:	7bffffc4 	addi	r15,r15,-1
   428ec:	027ffd16 	blt	zero,r9,428e4 <__alt_data_end+0xfffdb7e4>
   428f0:	003f9806 	br	42754 <__alt_data_end+0xfffdb654>
   428f4:	017ef884 	movi	r5,-1054
   428f8:	2a8bc83a 	sub	r5,r5,r10
   428fc:	2148983a 	sll	r4,r4,r5
   42900:	0011883a 	mov	r8,zero
   42904:	003f9906 	br	4276c <__alt_data_end+0xfffdb66c>
   42908:	00bef884 	movi	r2,-1054
   4290c:	13c5c83a 	sub	r2,r2,r15
   42910:	308c983a 	sll	r6,r6,r2
   42914:	001d883a 	mov	r14,zero
   42918:	003f9a06 	br	42784 <__alt_data_end+0xfffdb684>
   4291c:	7900ffc4 	addi	r4,r15,1023
   42920:	00bffc34 	movhi	r2,65520
   42924:	2008953a 	slli	r4,r4,20
   42928:	308d883a 	add	r6,r6,r2
   4292c:	30c6b03a 	or	r3,r6,r3
   42930:	4005883a 	mov	r2,r8
   42934:	1906b03a 	or	r3,r3,r4
   42938:	003f6606 	br	426d4 <__alt_data_end+0xfffdb5d4>
   4293c:	200d883a 	mov	r6,r4
   42940:	003fb006 	br	42804 <__alt_data_end+0xfffdb704>
   42944:	008007c4 	movi	r2,31
   42948:	11c00716 	blt	r2,r7,42968 <__ieee754_fmod+0x32c>
   4294c:	01000804 	movi	r4,32
   42950:	21c9c83a 	sub	r4,r4,r7
   42954:	41d0d83a 	srl	r8,r8,r7
   42958:	310c983a 	sll	r6,r6,r4
   4295c:	180f883a 	mov	r7,r3
   42960:	3208b03a 	or	r4,r6,r8
   42964:	003fbd06 	br	4285c <__alt_data_end+0xfffdb75c>
   42968:	013ef884 	movi	r4,-1054
   4296c:	23c9c83a 	sub	r4,r4,r15
   42970:	3109d83a 	sra	r4,r6,r4
   42974:	180f883a 	mov	r7,r3
   42978:	003fb806 	br	4285c <__alt_data_end+0xfffdb75c>

0004297c <__ieee754_log>:
   4297c:	defff204 	addi	sp,sp,-56
   42980:	01800434 	movhi	r6,16
   42984:	dfc00d15 	stw	ra,52(sp)
   42988:	df000c15 	stw	fp,48(sp)
   4298c:	ddc00b15 	stw	r23,44(sp)
   42990:	dd800a15 	stw	r22,40(sp)
   42994:	dd400915 	stw	r21,36(sp)
   42998:	dd000815 	stw	r20,32(sp)
   4299c:	dcc00715 	stw	r19,28(sp)
   429a0:	dc800615 	stw	r18,24(sp)
   429a4:	dc400515 	stw	r17,20(sp)
   429a8:	dc000415 	stw	r16,16(sp)
   429ac:	31bfffc4 	addi	r6,r6,-1
   429b0:	280f883a 	mov	r7,r5
   429b4:	2005883a 	mov	r2,r4
   429b8:	31404616 	blt	r6,r5,42ad4 <__ieee754_log+0x158>
   429bc:	00e00034 	movhi	r3,32768
   429c0:	18ffffc4 	addi	r3,r3,-1
   429c4:	28c6703a 	and	r3,r5,r3
   429c8:	1906b03a 	or	r3,r3,r4
   429cc:	1800f426 	beq	r3,zero,42da0 <__ieee754_log+0x424>
   429d0:	28017816 	blt	r5,zero,42fb4 <__ieee754_log+0x638>
   429d4:	01d0d434 	movhi	r7,17232
   429d8:	000d883a 	mov	r6,zero
   429dc:	0045b2c0 	call	45b2c <__muldf3>
   429e0:	015ffc34 	movhi	r5,32752
   429e4:	297fffc4 	addi	r5,r5,-1
   429e8:	180f883a 	mov	r7,r3
   429ec:	013ff284 	movi	r4,-54
   429f0:	28c03d16 	blt	r5,r3,42ae8 <__ieee754_log+0x16c>
   429f4:	04c00434 	movhi	r19,16
   429f8:	9cffffc4 	addi	r19,r19,-1
   429fc:	01400274 	movhi	r5,9
   42a00:	1cf8703a 	and	fp,r3,r19
   42a04:	2957d904 	addi	r5,r5,24420
   42a08:	1821d53a 	srai	r16,r3,20
   42a0c:	e14b883a 	add	r5,fp,r5
   42a10:	2940042c 	andhi	r5,r5,16
   42a14:	2807d53a 	srai	r3,r5,20
   42a18:	843f0044 	addi	r16,r16,-1023
   42a1c:	294ffc3c 	xorhi	r5,r5,16368
   42a20:	8121883a 	add	r16,r16,r4
   42a24:	000d883a 	mov	r6,zero
   42a28:	01cffc34 	movhi	r7,16368
   42a2c:	1009883a 	mov	r4,r2
   42a30:	2f0ab03a 	or	r5,r5,fp
   42a34:	1c21883a 	add	r16,r3,r16
   42a38:	00462440 	call	46244 <__subdf3>
   42a3c:	1025883a 	mov	r18,r2
   42a40:	e0800084 	addi	r2,fp,2
   42a44:	14e6703a 	and	r19,r2,r19
   42a48:	00800084 	movi	r2,2
   42a4c:	1823883a 	mov	r17,r3
   42a50:	000d883a 	mov	r6,zero
   42a54:	14c03416 	blt	r2,r19,42b28 <__ieee754_log+0x1ac>
   42a58:	000f883a 	mov	r7,zero
   42a5c:	9009883a 	mov	r4,r18
   42a60:	180b883a 	mov	r5,r3
   42a64:	00459c80 	call	459c8 <__eqdf2>
   42a68:	1000d31e 	bne	r2,zero,42db8 <__ieee754_log+0x43c>
   42a6c:	80015926 	beq	r16,zero,42fd4 <__ieee754_log+0x658>
   42a70:	8009883a 	mov	r4,r16
   42a74:	0046bc00 	call	46bc0 <__floatsidf>
   42a78:	01cff9b4 	movhi	r7,16358
   42a7c:	39cb9084 	addi	r7,r7,11842
   42a80:	01bfb834 	movhi	r6,65248
   42a84:	1009883a 	mov	r4,r2
   42a88:	180b883a 	mov	r5,r3
   42a8c:	1023883a 	mov	r17,r2
   42a90:	1821883a 	mov	r16,r3
   42a94:	0045b2c0 	call	45b2c <__muldf3>
   42a98:	018d5e74 	movhi	r6,13689
   42a9c:	01cf7ab4 	movhi	r7,15850
   42aa0:	8809883a 	mov	r4,r17
   42aa4:	800b883a 	mov	r5,r16
   42aa8:	318f1d84 	addi	r6,r6,15478
   42aac:	39ce7bc4 	addi	r7,r7,14831
   42ab0:	1027883a 	mov	r19,r2
   42ab4:	1825883a 	mov	r18,r3
   42ab8:	0045b2c0 	call	45b2c <__muldf3>
   42abc:	100d883a 	mov	r6,r2
   42ac0:	180f883a 	mov	r7,r3
   42ac4:	9809883a 	mov	r4,r19
   42ac8:	900b883a 	mov	r5,r18
   42acc:	00448340 	call	44834 <__adddf3>
   42ad0:	00000906 	br	42af8 <__ieee754_log+0x17c>
   42ad4:	2807883a 	mov	r3,r5
   42ad8:	015ffc34 	movhi	r5,32752
   42adc:	297fffc4 	addi	r5,r5,-1
   42ae0:	0009883a 	mov	r4,zero
   42ae4:	28ffc30e 	bge	r5,r3,429f4 <__alt_data_end+0xfffdb8f4>
   42ae8:	100d883a 	mov	r6,r2
   42aec:	1009883a 	mov	r4,r2
   42af0:	380b883a 	mov	r5,r7
   42af4:	00448340 	call	44834 <__adddf3>
   42af8:	dfc00d17 	ldw	ra,52(sp)
   42afc:	df000c17 	ldw	fp,48(sp)
   42b00:	ddc00b17 	ldw	r23,44(sp)
   42b04:	dd800a17 	ldw	r22,40(sp)
   42b08:	dd400917 	ldw	r21,36(sp)
   42b0c:	dd000817 	ldw	r20,32(sp)
   42b10:	dcc00717 	ldw	r19,28(sp)
   42b14:	dc800617 	ldw	r18,24(sp)
   42b18:	dc400517 	ldw	r17,20(sp)
   42b1c:	dc000417 	ldw	r16,16(sp)
   42b20:	dec00e04 	addi	sp,sp,56
   42b24:	f800283a 	ret
   42b28:	01d00034 	movhi	r7,16384
   42b2c:	9009883a 	mov	r4,r18
   42b30:	180b883a 	mov	r5,r3
   42b34:	00448340 	call	44834 <__adddf3>
   42b38:	100d883a 	mov	r6,r2
   42b3c:	180f883a 	mov	r7,r3
   42b40:	880b883a 	mov	r5,r17
   42b44:	9009883a 	mov	r4,r18
   42b48:	00450e00 	call	450e0 <__divdf3>
   42b4c:	8009883a 	mov	r4,r16
   42b50:	102d883a 	mov	r22,r2
   42b54:	182b883a 	mov	r21,r3
   42b58:	0046bc00 	call	46bc0 <__floatsidf>
   42b5c:	b00d883a 	mov	r6,r22
   42b60:	a80f883a 	mov	r7,r21
   42b64:	b009883a 	mov	r4,r22
   42b68:	a80b883a 	mov	r5,r21
   42b6c:	d8800015 	stw	r2,0(sp)
   42b70:	d8c00115 	stw	r3,4(sp)
   42b74:	0045b2c0 	call	45b2c <__muldf3>
   42b78:	027ffeb4 	movhi	r9,65530
   42b7c:	4a7ae184 	addi	r9,r9,-5242
   42b80:	100d883a 	mov	r6,r2
   42b84:	180f883a 	mov	r7,r3
   42b88:	1009883a 	mov	r4,r2
   42b8c:	180b883a 	mov	r5,r3
   42b90:	e26f883a 	add	r23,fp,r9
   42b94:	d8c00315 	stw	r3,12(sp)
   42b98:	d8800215 	stw	r2,8(sp)
   42b9c:	0045b2c0 	call	45b2c <__muldf3>
   42ba0:	01b7cfb4 	movhi	r6,57150
   42ba4:	01cff0f4 	movhi	r7,16323
   42ba8:	31949104 	addi	r6,r6,21060
   42bac:	39fc4484 	addi	r7,r7,-3822
   42bb0:	1009883a 	mov	r4,r2
   42bb4:	180b883a 	mov	r5,r3
   42bb8:	1029883a 	mov	r20,r2
   42bbc:	1827883a 	mov	r19,r3
   42bc0:	0045b2c0 	call	45b2c <__muldf3>
   42bc4:	01a5b2f4 	movhi	r6,38603
   42bc8:	01cff1f4 	movhi	r7,16327
   42bcc:	3180f784 	addi	r6,r6,990
   42bd0:	39d19904 	addi	r7,r7,18020
   42bd4:	1009883a 	mov	r4,r2
   42bd8:	180b883a 	mov	r5,r3
   42bdc:	00448340 	call	44834 <__adddf3>
   42be0:	a00d883a 	mov	r6,r20
   42be4:	980f883a 	mov	r7,r19
   42be8:	1009883a 	mov	r4,r2
   42bec:	180b883a 	mov	r5,r3
   42bf0:	0045b2c0 	call	45b2c <__muldf3>
   42bf4:	01a508f4 	movhi	r6,37923
   42bf8:	01cff4b4 	movhi	r7,16338
   42bfc:	31a4d644 	addi	r6,r6,-27815
   42c00:	39d24904 	addi	r7,r7,18724
   42c04:	1009883a 	mov	r4,r2
   42c08:	180b883a 	mov	r5,r3
   42c0c:	00448340 	call	44834 <__adddf3>
   42c10:	a00d883a 	mov	r6,r20
   42c14:	980f883a 	mov	r7,r19
   42c18:	1009883a 	mov	r4,r2
   42c1c:	180b883a 	mov	r5,r3
   42c20:	0045b2c0 	call	45b2c <__muldf3>
   42c24:	01955574 	movhi	r6,21845
   42c28:	01cff974 	movhi	r7,16357
   42c2c:	319564c4 	addi	r6,r6,21907
   42c30:	39d55544 	addi	r7,r7,21845
   42c34:	1009883a 	mov	r4,r2
   42c38:	180b883a 	mov	r5,r3
   42c3c:	00448340 	call	44834 <__adddf3>
   42c40:	dac00217 	ldw	r11,8(sp)
   42c44:	da800317 	ldw	r10,12(sp)
   42c48:	1009883a 	mov	r4,r2
   42c4c:	580d883a 	mov	r6,r11
   42c50:	500f883a 	mov	r7,r10
   42c54:	180b883a 	mov	r5,r3
   42c58:	0045b2c0 	call	45b2c <__muldf3>
   42c5c:	01b41e74 	movhi	r6,53369
   42c60:	01cff134 	movhi	r7,16324
   42c64:	a009883a 	mov	r4,r20
   42c68:	980b883a 	mov	r5,r19
   42c6c:	31b1a7c4 	addi	r6,r6,-14689
   42c70:	39e68244 	addi	r7,r7,-26103
   42c74:	d8c00315 	stw	r3,12(sp)
   42c78:	d8800215 	stw	r2,8(sp)
   42c7c:	0045b2c0 	call	45b2c <__muldf3>
   42c80:	018763b4 	movhi	r6,7566
   42c84:	01cff334 	movhi	r7,16332
   42c88:	319e2bc4 	addi	r6,r6,30895
   42c8c:	39dc7144 	addi	r7,r7,29125
   42c90:	1009883a 	mov	r4,r2
   42c94:	180b883a 	mov	r5,r3
   42c98:	00448340 	call	44834 <__adddf3>
   42c9c:	a00d883a 	mov	r6,r20
   42ca0:	980f883a 	mov	r7,r19
   42ca4:	1009883a 	mov	r4,r2
   42ca8:	180b883a 	mov	r5,r3
   42cac:	0045b2c0 	call	45b2c <__muldf3>
   42cb0:	01a66634 	movhi	r6,39320
   42cb4:	01cff6b4 	movhi	r7,16346
   42cb8:	31be8104 	addi	r6,r6,-1532
   42cbc:	39e66644 	addi	r7,r7,-26215
   42cc0:	1009883a 	mov	r4,r2
   42cc4:	180b883a 	mov	r5,r3
   42cc8:	00448340 	call	44834 <__adddf3>
   42ccc:	a00d883a 	mov	r6,r20
   42cd0:	980f883a 	mov	r7,r19
   42cd4:	1009883a 	mov	r4,r2
   42cd8:	180b883a 	mov	r5,r3
   42cdc:	0045b2c0 	call	45b2c <__muldf3>
   42ce0:	dac00217 	ldw	r11,8(sp)
   42ce4:	da800317 	ldw	r10,12(sp)
   42ce8:	100d883a 	mov	r6,r2
   42cec:	180f883a 	mov	r7,r3
   42cf0:	5809883a 	mov	r4,r11
   42cf4:	500b883a 	mov	r5,r10
   42cf8:	00448340 	call	44834 <__adddf3>
   42cfc:	1827883a 	mov	r19,r3
   42d00:	00c001f4 	movhi	r3,7
   42d04:	18ee1444 	addi	r3,r3,-18351
   42d08:	1f07c83a 	sub	r3,r3,fp
   42d0c:	1dd2b03a 	or	r9,r3,r23
   42d10:	1029883a 	mov	r20,r2
   42d14:	0240490e 	bge	zero,r9,42e3c <__ieee754_log+0x4c0>
   42d18:	000d883a 	mov	r6,zero
   42d1c:	01cff834 	movhi	r7,16352
   42d20:	9009883a 	mov	r4,r18
   42d24:	880b883a 	mov	r5,r17
   42d28:	0045b2c0 	call	45b2c <__muldf3>
   42d2c:	900d883a 	mov	r6,r18
   42d30:	880f883a 	mov	r7,r17
   42d34:	1009883a 	mov	r4,r2
   42d38:	180b883a 	mov	r5,r3
   42d3c:	0045b2c0 	call	45b2c <__muldf3>
   42d40:	1039883a 	mov	fp,r2
   42d44:	182f883a 	mov	r23,r3
   42d48:	8000691e 	bne	r16,zero,42ef0 <__ieee754_log+0x574>
   42d4c:	100d883a 	mov	r6,r2
   42d50:	180f883a 	mov	r7,r3
   42d54:	a009883a 	mov	r4,r20
   42d58:	980b883a 	mov	r5,r19
   42d5c:	00448340 	call	44834 <__adddf3>
   42d60:	b00d883a 	mov	r6,r22
   42d64:	a80f883a 	mov	r7,r21
   42d68:	1009883a 	mov	r4,r2
   42d6c:	180b883a 	mov	r5,r3
   42d70:	0045b2c0 	call	45b2c <__muldf3>
   42d74:	100d883a 	mov	r6,r2
   42d78:	180f883a 	mov	r7,r3
   42d7c:	e009883a 	mov	r4,fp
   42d80:	b80b883a 	mov	r5,r23
   42d84:	00462440 	call	46244 <__subdf3>
   42d88:	100d883a 	mov	r6,r2
   42d8c:	180f883a 	mov	r7,r3
   42d90:	9009883a 	mov	r4,r18
   42d94:	880b883a 	mov	r5,r17
   42d98:	00462440 	call	46244 <__subdf3>
   42d9c:	003f5606 	br	42af8 <__alt_data_end+0xfffdb9f8>
   42da0:	000d883a 	mov	r6,zero
   42da4:	000f883a 	mov	r7,zero
   42da8:	0009883a 	mov	r4,zero
   42dac:	0170d434 	movhi	r5,50000
   42db0:	00450e00 	call	450e0 <__divdf3>
   42db4:	003f5006 	br	42af8 <__alt_data_end+0xfffdb9f8>
   42db8:	01955574 	movhi	r6,21845
   42dbc:	01cff574 	movhi	r7,16341
   42dc0:	31955544 	addi	r6,r6,21845
   42dc4:	39d55544 	addi	r7,r7,21845
   42dc8:	9009883a 	mov	r4,r18
   42dcc:	880b883a 	mov	r5,r17
   42dd0:	0045b2c0 	call	45b2c <__muldf3>
   42dd4:	100d883a 	mov	r6,r2
   42dd8:	180f883a 	mov	r7,r3
   42ddc:	0009883a 	mov	r4,zero
   42de0:	014ff834 	movhi	r5,16352
   42de4:	00462440 	call	46244 <__subdf3>
   42de8:	900d883a 	mov	r6,r18
   42dec:	880f883a 	mov	r7,r17
   42df0:	9009883a 	mov	r4,r18
   42df4:	880b883a 	mov	r5,r17
   42df8:	1029883a 	mov	r20,r2
   42dfc:	1827883a 	mov	r19,r3
   42e00:	0045b2c0 	call	45b2c <__muldf3>
   42e04:	a009883a 	mov	r4,r20
   42e08:	980b883a 	mov	r5,r19
   42e0c:	100d883a 	mov	r6,r2
   42e10:	180f883a 	mov	r7,r3
   42e14:	0045b2c0 	call	45b2c <__muldf3>
   42e18:	1029883a 	mov	r20,r2
   42e1c:	1827883a 	mov	r19,r3
   42e20:	80006f1e 	bne	r16,zero,42fe0 <__ieee754_log+0x664>
   42e24:	100d883a 	mov	r6,r2
   42e28:	180f883a 	mov	r7,r3
   42e2c:	9009883a 	mov	r4,r18
   42e30:	880b883a 	mov	r5,r17
   42e34:	00462440 	call	46244 <__subdf3>
   42e38:	003f2f06 	br	42af8 <__alt_data_end+0xfffdb9f8>
   42e3c:	80008b26 	beq	r16,zero,4306c <__ieee754_log+0x6f0>
   42e40:	d9000017 	ldw	r4,0(sp)
   42e44:	d9400117 	ldw	r5,4(sp)
   42e48:	01cff9b4 	movhi	r7,16358
   42e4c:	39cb9084 	addi	r7,r7,11842
   42e50:	01bfb834 	movhi	r6,65248
   42e54:	0045b2c0 	call	45b2c <__muldf3>
   42e58:	a00d883a 	mov	r6,r20
   42e5c:	980f883a 	mov	r7,r19
   42e60:	9009883a 	mov	r4,r18
   42e64:	880b883a 	mov	r5,r17
   42e68:	1821883a 	mov	r16,r3
   42e6c:	d8800215 	stw	r2,8(sp)
   42e70:	00462440 	call	46244 <__subdf3>
   42e74:	b00d883a 	mov	r6,r22
   42e78:	a80f883a 	mov	r7,r21
   42e7c:	1009883a 	mov	r4,r2
   42e80:	180b883a 	mov	r5,r3
   42e84:	0045b2c0 	call	45b2c <__muldf3>
   42e88:	d9000017 	ldw	r4,0(sp)
   42e8c:	d9400117 	ldw	r5,4(sp)
   42e90:	018d5e74 	movhi	r6,13689
   42e94:	01cf7ab4 	movhi	r7,15850
   42e98:	318f1d84 	addi	r6,r6,15478
   42e9c:	39ce7bc4 	addi	r7,r7,14831
   42ea0:	1029883a 	mov	r20,r2
   42ea4:	1827883a 	mov	r19,r3
   42ea8:	0045b2c0 	call	45b2c <__muldf3>
   42eac:	a009883a 	mov	r4,r20
   42eb0:	980b883a 	mov	r5,r19
   42eb4:	100d883a 	mov	r6,r2
   42eb8:	180f883a 	mov	r7,r3
   42ebc:	00462440 	call	46244 <__subdf3>
   42ec0:	900d883a 	mov	r6,r18
   42ec4:	880f883a 	mov	r7,r17
   42ec8:	1009883a 	mov	r4,r2
   42ecc:	180b883a 	mov	r5,r3
   42ed0:	00462440 	call	46244 <__subdf3>
   42ed4:	da000217 	ldw	r8,8(sp)
   42ed8:	100d883a 	mov	r6,r2
   42edc:	180f883a 	mov	r7,r3
   42ee0:	4009883a 	mov	r4,r8
   42ee4:	800b883a 	mov	r5,r16
   42ee8:	00462440 	call	46244 <__subdf3>
   42eec:	003f0206 	br	42af8 <__alt_data_end+0xfffdb9f8>
   42ef0:	d9000017 	ldw	r4,0(sp)
   42ef4:	d9400117 	ldw	r5,4(sp)
   42ef8:	01cff9b4 	movhi	r7,16358
   42efc:	39cb9084 	addi	r7,r7,11842
   42f00:	01bfb834 	movhi	r6,65248
   42f04:	0045b2c0 	call	45b2c <__muldf3>
   42f08:	e00d883a 	mov	r6,fp
   42f0c:	b80f883a 	mov	r7,r23
   42f10:	a009883a 	mov	r4,r20
   42f14:	980b883a 	mov	r5,r19
   42f18:	1821883a 	mov	r16,r3
   42f1c:	d8800315 	stw	r2,12(sp)
   42f20:	00448340 	call	44834 <__adddf3>
   42f24:	b00d883a 	mov	r6,r22
   42f28:	a80f883a 	mov	r7,r21
   42f2c:	1009883a 	mov	r4,r2
   42f30:	180b883a 	mov	r5,r3
   42f34:	0045b2c0 	call	45b2c <__muldf3>
   42f38:	d9000017 	ldw	r4,0(sp)
   42f3c:	d9400117 	ldw	r5,4(sp)
   42f40:	018d5e74 	movhi	r6,13689
   42f44:	01cf7ab4 	movhi	r7,15850
   42f48:	318f1d84 	addi	r6,r6,15478
   42f4c:	39ce7bc4 	addi	r7,r7,14831
   42f50:	1029883a 	mov	r20,r2
   42f54:	1827883a 	mov	r19,r3
   42f58:	0045b2c0 	call	45b2c <__muldf3>
   42f5c:	a009883a 	mov	r4,r20
   42f60:	980b883a 	mov	r5,r19
   42f64:	100d883a 	mov	r6,r2
   42f68:	180f883a 	mov	r7,r3
   42f6c:	00448340 	call	44834 <__adddf3>
   42f70:	e009883a 	mov	r4,fp
   42f74:	b80b883a 	mov	r5,r23
   42f78:	100d883a 	mov	r6,r2
   42f7c:	180f883a 	mov	r7,r3
   42f80:	00462440 	call	46244 <__subdf3>
   42f84:	900d883a 	mov	r6,r18
   42f88:	880f883a 	mov	r7,r17
   42f8c:	1009883a 	mov	r4,r2
   42f90:	180b883a 	mov	r5,r3
   42f94:	00462440 	call	46244 <__subdf3>
   42f98:	da800317 	ldw	r10,12(sp)
   42f9c:	100d883a 	mov	r6,r2
   42fa0:	180f883a 	mov	r7,r3
   42fa4:	5009883a 	mov	r4,r10
   42fa8:	800b883a 	mov	r5,r16
   42fac:	00462440 	call	46244 <__subdf3>
   42fb0:	003ed106 	br	42af8 <__alt_data_end+0xfffdb9f8>
   42fb4:	200d883a 	mov	r6,r4
   42fb8:	00462440 	call	46244 <__subdf3>
   42fbc:	000d883a 	mov	r6,zero
   42fc0:	000f883a 	mov	r7,zero
   42fc4:	1009883a 	mov	r4,r2
   42fc8:	180b883a 	mov	r5,r3
   42fcc:	00450e00 	call	450e0 <__divdf3>
   42fd0:	003ec906 	br	42af8 <__alt_data_end+0xfffdb9f8>
   42fd4:	0005883a 	mov	r2,zero
   42fd8:	0007883a 	mov	r3,zero
   42fdc:	003ec606 	br	42af8 <__alt_data_end+0xfffdb9f8>
   42fe0:	8009883a 	mov	r4,r16
   42fe4:	0046bc00 	call	46bc0 <__floatsidf>
   42fe8:	01cff9b4 	movhi	r7,16358
   42fec:	39cb9084 	addi	r7,r7,11842
   42ff0:	01bfb834 	movhi	r6,65248
   42ff4:	1009883a 	mov	r4,r2
   42ff8:	180b883a 	mov	r5,r3
   42ffc:	102b883a 	mov	r21,r2
   43000:	1821883a 	mov	r16,r3
   43004:	0045b2c0 	call	45b2c <__muldf3>
   43008:	018d5e74 	movhi	r6,13689
   4300c:	01cf7ab4 	movhi	r7,15850
   43010:	a809883a 	mov	r4,r21
   43014:	800b883a 	mov	r5,r16
   43018:	318f1d84 	addi	r6,r6,15478
   4301c:	39ce7bc4 	addi	r7,r7,14831
   43020:	102f883a 	mov	r23,r2
   43024:	182d883a 	mov	r22,r3
   43028:	0045b2c0 	call	45b2c <__muldf3>
   4302c:	a009883a 	mov	r4,r20
   43030:	980b883a 	mov	r5,r19
   43034:	100d883a 	mov	r6,r2
   43038:	180f883a 	mov	r7,r3
   4303c:	00462440 	call	46244 <__subdf3>
   43040:	900d883a 	mov	r6,r18
   43044:	880f883a 	mov	r7,r17
   43048:	1009883a 	mov	r4,r2
   4304c:	180b883a 	mov	r5,r3
   43050:	00462440 	call	46244 <__subdf3>
   43054:	100d883a 	mov	r6,r2
   43058:	180f883a 	mov	r7,r3
   4305c:	b809883a 	mov	r4,r23
   43060:	b00b883a 	mov	r5,r22
   43064:	00462440 	call	46244 <__subdf3>
   43068:	003ea306 	br	42af8 <__alt_data_end+0xfffdb9f8>
   4306c:	a00d883a 	mov	r6,r20
   43070:	980f883a 	mov	r7,r19
   43074:	9009883a 	mov	r4,r18
   43078:	880b883a 	mov	r5,r17
   4307c:	00462440 	call	46244 <__subdf3>
   43080:	b00d883a 	mov	r6,r22
   43084:	a80f883a 	mov	r7,r21
   43088:	1009883a 	mov	r4,r2
   4308c:	180b883a 	mov	r5,r3
   43090:	0045b2c0 	call	45b2c <__muldf3>
   43094:	003f3c06 	br	42d88 <__alt_data_end+0xfffdbc88>

00043098 <__fpclassifyd>:
   43098:	00a00034 	movhi	r2,32768
   4309c:	10bfffc4 	addi	r2,r2,-1
   430a0:	2884703a 	and	r2,r5,r2
   430a4:	10000726 	beq	r2,zero,430c4 <__fpclassifyd+0x2c>
   430a8:	00fffc34 	movhi	r3,65520
   430ac:	019ff834 	movhi	r6,32736
   430b0:	28c7883a 	add	r3,r5,r3
   430b4:	31bfffc4 	addi	r6,r6,-1
   430b8:	30c00536 	bltu	r6,r3,430d0 <__fpclassifyd+0x38>
   430bc:	00800104 	movi	r2,4
   430c0:	f800283a 	ret
   430c4:	2000021e 	bne	r4,zero,430d0 <__fpclassifyd+0x38>
   430c8:	00800084 	movi	r2,2
   430cc:	f800283a 	ret
   430d0:	00dffc34 	movhi	r3,32752
   430d4:	019ff834 	movhi	r6,32736
   430d8:	28cb883a 	add	r5,r5,r3
   430dc:	31bfffc4 	addi	r6,r6,-1
   430e0:	317ff62e 	bgeu	r6,r5,430bc <__alt_data_end+0xfffdbfbc>
   430e4:	01400434 	movhi	r5,16
   430e8:	297fffc4 	addi	r5,r5,-1
   430ec:	28800236 	bltu	r5,r2,430f8 <__fpclassifyd+0x60>
   430f0:	008000c4 	movi	r2,3
   430f4:	f800283a 	ret
   430f8:	10c00226 	beq	r2,r3,43104 <__fpclassifyd+0x6c>
   430fc:	0005883a 	mov	r2,zero
   43100:	f800283a 	ret
   43104:	2005003a 	cmpeq	r2,r4,zero
   43108:	f800283a 	ret

0004310c <matherr>:
   4310c:	0005883a 	mov	r2,zero
   43110:	f800283a 	ret

00043114 <nan>:
   43114:	0005883a 	mov	r2,zero
   43118:	00dffe34 	movhi	r3,32760
   4311c:	f800283a 	ret

00043120 <__fixunssfsi>:
   43120:	defffd04 	addi	sp,sp,-12
   43124:	dc000015 	stw	r16,0(sp)
   43128:	0413c034 	movhi	r16,20224
   4312c:	800b883a 	mov	r5,r16
   43130:	dc400115 	stw	r17,4(sp)
   43134:	dfc00215 	stw	ra,8(sp)
   43138:	2023883a 	mov	r17,r4
   4313c:	0043c3c0 	call	43c3c <__gesf2>
   43140:	1000070e 	bge	r2,zero,43160 <__fixunssfsi+0x40>
   43144:	8809883a 	mov	r4,r17
   43148:	00446a00 	call	446a0 <__fixsfsi>
   4314c:	dfc00217 	ldw	ra,8(sp)
   43150:	dc400117 	ldw	r17,4(sp)
   43154:	dc000017 	ldw	r16,0(sp)
   43158:	dec00304 	addi	sp,sp,12
   4315c:	f800283a 	ret
   43160:	800b883a 	mov	r5,r16
   43164:	8809883a 	mov	r4,r17
   43168:	00441bc0 	call	441bc <__subsf3>
   4316c:	1009883a 	mov	r4,r2
   43170:	00446a00 	call	446a0 <__fixsfsi>
   43174:	00e00034 	movhi	r3,32768
   43178:	10c5883a 	add	r2,r2,r3
   4317c:	003ff306 	br	4314c <__alt_data_end+0xfffdc04c>

00043180 <__divsi3>:
   43180:	20001b16 	blt	r4,zero,431f0 <__divsi3+0x70>
   43184:	000f883a 	mov	r7,zero
   43188:	28001616 	blt	r5,zero,431e4 <__divsi3+0x64>
   4318c:	200d883a 	mov	r6,r4
   43190:	29001a2e 	bgeu	r5,r4,431fc <__divsi3+0x7c>
   43194:	00800804 	movi	r2,32
   43198:	00c00044 	movi	r3,1
   4319c:	00000106 	br	431a4 <__divsi3+0x24>
   431a0:	10000d26 	beq	r2,zero,431d8 <__divsi3+0x58>
   431a4:	294b883a 	add	r5,r5,r5
   431a8:	10bfffc4 	addi	r2,r2,-1
   431ac:	18c7883a 	add	r3,r3,r3
   431b0:	293ffb36 	bltu	r5,r4,431a0 <__alt_data_end+0xfffdc0a0>
   431b4:	0005883a 	mov	r2,zero
   431b8:	18000726 	beq	r3,zero,431d8 <__divsi3+0x58>
   431bc:	0005883a 	mov	r2,zero
   431c0:	31400236 	bltu	r6,r5,431cc <__divsi3+0x4c>
   431c4:	314dc83a 	sub	r6,r6,r5
   431c8:	10c4b03a 	or	r2,r2,r3
   431cc:	1806d07a 	srli	r3,r3,1
   431d0:	280ad07a 	srli	r5,r5,1
   431d4:	183ffa1e 	bne	r3,zero,431c0 <__alt_data_end+0xfffdc0c0>
   431d8:	38000126 	beq	r7,zero,431e0 <__divsi3+0x60>
   431dc:	0085c83a 	sub	r2,zero,r2
   431e0:	f800283a 	ret
   431e4:	014bc83a 	sub	r5,zero,r5
   431e8:	39c0005c 	xori	r7,r7,1
   431ec:	003fe706 	br	4318c <__alt_data_end+0xfffdc08c>
   431f0:	0109c83a 	sub	r4,zero,r4
   431f4:	01c00044 	movi	r7,1
   431f8:	003fe306 	br	43188 <__alt_data_end+0xfffdc088>
   431fc:	00c00044 	movi	r3,1
   43200:	003fee06 	br	431bc <__alt_data_end+0xfffdc0bc>

00043204 <__modsi3>:
   43204:	20001716 	blt	r4,zero,43264 <__modsi3+0x60>
   43208:	000f883a 	mov	r7,zero
   4320c:	2005883a 	mov	r2,r4
   43210:	28001216 	blt	r5,zero,4325c <__modsi3+0x58>
   43214:	2900162e 	bgeu	r5,r4,43270 <__modsi3+0x6c>
   43218:	01800804 	movi	r6,32
   4321c:	00c00044 	movi	r3,1
   43220:	00000106 	br	43228 <__modsi3+0x24>
   43224:	30000a26 	beq	r6,zero,43250 <__modsi3+0x4c>
   43228:	294b883a 	add	r5,r5,r5
   4322c:	31bfffc4 	addi	r6,r6,-1
   43230:	18c7883a 	add	r3,r3,r3
   43234:	293ffb36 	bltu	r5,r4,43224 <__alt_data_end+0xfffdc124>
   43238:	18000526 	beq	r3,zero,43250 <__modsi3+0x4c>
   4323c:	1806d07a 	srli	r3,r3,1
   43240:	11400136 	bltu	r2,r5,43248 <__modsi3+0x44>
   43244:	1145c83a 	sub	r2,r2,r5
   43248:	280ad07a 	srli	r5,r5,1
   4324c:	183ffb1e 	bne	r3,zero,4323c <__alt_data_end+0xfffdc13c>
   43250:	38000126 	beq	r7,zero,43258 <__modsi3+0x54>
   43254:	0085c83a 	sub	r2,zero,r2
   43258:	f800283a 	ret
   4325c:	014bc83a 	sub	r5,zero,r5
   43260:	003fec06 	br	43214 <__alt_data_end+0xfffdc114>
   43264:	0109c83a 	sub	r4,zero,r4
   43268:	01c00044 	movi	r7,1
   4326c:	003fe706 	br	4320c <__alt_data_end+0xfffdc10c>
   43270:	00c00044 	movi	r3,1
   43274:	003ff106 	br	4323c <__alt_data_end+0xfffdc13c>

00043278 <__udivsi3>:
   43278:	200d883a 	mov	r6,r4
   4327c:	2900152e 	bgeu	r5,r4,432d4 <__udivsi3+0x5c>
   43280:	28001416 	blt	r5,zero,432d4 <__udivsi3+0x5c>
   43284:	00800804 	movi	r2,32
   43288:	00c00044 	movi	r3,1
   4328c:	00000206 	br	43298 <__udivsi3+0x20>
   43290:	10000e26 	beq	r2,zero,432cc <__udivsi3+0x54>
   43294:	28000516 	blt	r5,zero,432ac <__udivsi3+0x34>
   43298:	294b883a 	add	r5,r5,r5
   4329c:	10bfffc4 	addi	r2,r2,-1
   432a0:	18c7883a 	add	r3,r3,r3
   432a4:	293ffa36 	bltu	r5,r4,43290 <__alt_data_end+0xfffdc190>
   432a8:	18000826 	beq	r3,zero,432cc <__udivsi3+0x54>
   432ac:	0005883a 	mov	r2,zero
   432b0:	31400236 	bltu	r6,r5,432bc <__udivsi3+0x44>
   432b4:	314dc83a 	sub	r6,r6,r5
   432b8:	10c4b03a 	or	r2,r2,r3
   432bc:	1806d07a 	srli	r3,r3,1
   432c0:	280ad07a 	srli	r5,r5,1
   432c4:	183ffa1e 	bne	r3,zero,432b0 <__alt_data_end+0xfffdc1b0>
   432c8:	f800283a 	ret
   432cc:	0005883a 	mov	r2,zero
   432d0:	f800283a 	ret
   432d4:	00c00044 	movi	r3,1
   432d8:	003ff406 	br	432ac <__alt_data_end+0xfffdc1ac>

000432dc <__umodsi3>:
   432dc:	2005883a 	mov	r2,r4
   432e0:	2900122e 	bgeu	r5,r4,4332c <__umodsi3+0x50>
   432e4:	28001116 	blt	r5,zero,4332c <__umodsi3+0x50>
   432e8:	01800804 	movi	r6,32
   432ec:	00c00044 	movi	r3,1
   432f0:	00000206 	br	432fc <__umodsi3+0x20>
   432f4:	30000c26 	beq	r6,zero,43328 <__umodsi3+0x4c>
   432f8:	28000516 	blt	r5,zero,43310 <__umodsi3+0x34>
   432fc:	294b883a 	add	r5,r5,r5
   43300:	31bfffc4 	addi	r6,r6,-1
   43304:	18c7883a 	add	r3,r3,r3
   43308:	293ffa36 	bltu	r5,r4,432f4 <__alt_data_end+0xfffdc1f4>
   4330c:	18000626 	beq	r3,zero,43328 <__umodsi3+0x4c>
   43310:	1806d07a 	srli	r3,r3,1
   43314:	11400136 	bltu	r2,r5,4331c <__umodsi3+0x40>
   43318:	1145c83a 	sub	r2,r2,r5
   4331c:	280ad07a 	srli	r5,r5,1
   43320:	183ffb1e 	bne	r3,zero,43310 <__alt_data_end+0xfffdc210>
   43324:	f800283a 	ret
   43328:	f800283a 	ret
   4332c:	00c00044 	movi	r3,1
   43330:	003ff706 	br	43310 <__alt_data_end+0xfffdc210>

00043334 <__addsf3>:
   43334:	defffc04 	addi	sp,sp,-16
   43338:	2004d7fa 	srli	r2,r4,31
   4333c:	280cd5fa 	srli	r6,r5,23
   43340:	dc000015 	stw	r16,0(sp)
   43344:	00c02034 	movhi	r3,128
   43348:	2020d5fa 	srli	r16,r4,23
   4334c:	280ed7fa 	srli	r7,r5,31
   43350:	18ffffc4 	addi	r3,r3,-1
   43354:	dc400115 	stw	r17,4(sp)
   43358:	1908703a 	and	r4,r3,r4
   4335c:	194a703a 	and	r5,r3,r5
   43360:	dfc00315 	stw	ra,12(sp)
   43364:	dc800215 	stw	r18,8(sp)
   43368:	14403fcc 	andi	r17,r2,255
   4336c:	84003fcc 	andi	r16,r16,255
   43370:	200890fa 	slli	r4,r4,3
   43374:	31803fcc 	andi	r6,r6,255
   43378:	280a90fa 	slli	r5,r5,3
   4337c:	89c05026 	beq	r17,r7,434c0 <__addsf3+0x18c>
   43380:	8185c83a 	sub	r2,r16,r6
   43384:	00807a0e 	bge	zero,r2,43570 <__addsf3+0x23c>
   43388:	30001e1e 	bne	r6,zero,43404 <__addsf3+0xd0>
   4338c:	28006d1e 	bne	r5,zero,43544 <__addsf3+0x210>
   43390:	208001cc 	andi	r2,r4,7
   43394:	10000426 	beq	r2,zero,433a8 <__addsf3+0x74>
   43398:	208003cc 	andi	r2,r4,15
   4339c:	00c00104 	movi	r3,4
   433a0:	10c00126 	beq	r2,r3,433a8 <__addsf3+0x74>
   433a4:	20c9883a 	add	r4,r4,r3
   433a8:	2081002c 	andhi	r2,r4,1024
   433ac:	10003926 	beq	r2,zero,43494 <__addsf3+0x160>
   433b0:	84000044 	addi	r16,r16,1
   433b4:	00803fc4 	movi	r2,255
   433b8:	80807826 	beq	r16,r2,4359c <__addsf3+0x268>
   433bc:	200891ba 	slli	r4,r4,6
   433c0:	8805883a 	mov	r2,r17
   433c4:	2008d27a 	srli	r4,r4,9
   433c8:	84003fcc 	andi	r16,r16,255
   433cc:	800695fa 	slli	r3,r16,23
   433d0:	10803fcc 	andi	r2,r2,255
   433d4:	04002034 	movhi	r16,128
   433d8:	843fffc4 	addi	r16,r16,-1
   433dc:	100497fa 	slli	r2,r2,31
   433e0:	2408703a 	and	r4,r4,r16
   433e4:	20e0b03a 	or	r16,r4,r3
   433e8:	8084b03a 	or	r2,r16,r2
   433ec:	dfc00317 	ldw	ra,12(sp)
   433f0:	dc800217 	ldw	r18,8(sp)
   433f4:	dc400117 	ldw	r17,4(sp)
   433f8:	dc000017 	ldw	r16,0(sp)
   433fc:	dec00404 	addi	sp,sp,16
   43400:	f800283a 	ret
   43404:	00c03fc4 	movi	r3,255
   43408:	80ffe126 	beq	r16,r3,43390 <__alt_data_end+0xfffdc290>
   4340c:	29410034 	orhi	r5,r5,1024
   43410:	00c006c4 	movi	r3,27
   43414:	18807516 	blt	r3,r2,435ec <__addsf3+0x2b8>
   43418:	00c00804 	movi	r3,32
   4341c:	1887c83a 	sub	r3,r3,r2
   43420:	28c6983a 	sll	r3,r5,r3
   43424:	288ad83a 	srl	r5,r5,r2
   43428:	1804c03a 	cmpne	r2,r3,zero
   4342c:	288ab03a 	or	r5,r5,r2
   43430:	2149c83a 	sub	r4,r4,r5
   43434:	2081002c 	andhi	r2,r4,1024
   43438:	10001426 	beq	r2,zero,4348c <__addsf3+0x158>
   4343c:	04810034 	movhi	r18,1024
   43440:	94bfffc4 	addi	r18,r18,-1
   43444:	24a4703a 	and	r18,r4,r18
   43448:	9009883a 	mov	r4,r18
   4344c:	0046f540 	call	46f54 <__clzsi2>
   43450:	10bffec4 	addi	r2,r2,-5
   43454:	90a4983a 	sll	r18,r18,r2
   43458:	14005416 	blt	r2,r16,435ac <__addsf3+0x278>
   4345c:	1405c83a 	sub	r2,r2,r16
   43460:	11000044 	addi	r4,r2,1
   43464:	00800804 	movi	r2,32
   43468:	1105c83a 	sub	r2,r2,r4
   4346c:	9084983a 	sll	r2,r18,r2
   43470:	9124d83a 	srl	r18,r18,r4
   43474:	0021883a 	mov	r16,zero
   43478:	1008c03a 	cmpne	r4,r2,zero
   4347c:	9108b03a 	or	r4,r18,r4
   43480:	003fc306 	br	43390 <__alt_data_end+0xfffdc290>
   43484:	1000db26 	beq	r2,zero,437f4 <__addsf3+0x4c0>
   43488:	1009883a 	mov	r4,r2
   4348c:	208001cc 	andi	r2,r4,7
   43490:	103fc11e 	bne	r2,zero,43398 <__alt_data_end+0xfffdc298>
   43494:	2006d0fa 	srli	r3,r4,3
   43498:	01003fc4 	movi	r4,255
   4349c:	8805883a 	mov	r2,r17
   434a0:	8100241e 	bne	r16,r4,43534 <__addsf3+0x200>
   434a4:	18006e26 	beq	r3,zero,43660 <__addsf3+0x32c>
   434a8:	19001034 	orhi	r4,r3,64
   434ac:	00c02034 	movhi	r3,128
   434b0:	18ffffc4 	addi	r3,r3,-1
   434b4:	043fffc4 	movi	r16,-1
   434b8:	20c8703a 	and	r4,r4,r3
   434bc:	003fc206 	br	433c8 <__alt_data_end+0xfffdc2c8>
   434c0:	8187c83a 	sub	r3,r16,r6
   434c4:	00c03e0e 	bge	zero,r3,435c0 <__addsf3+0x28c>
   434c8:	30002326 	beq	r6,zero,43558 <__addsf3+0x224>
   434cc:	01803fc4 	movi	r6,255
   434d0:	81bfaf26 	beq	r16,r6,43390 <__alt_data_end+0xfffdc290>
   434d4:	29410034 	orhi	r5,r5,1024
   434d8:	018006c4 	movi	r6,27
   434dc:	30c07416 	blt	r6,r3,436b0 <__addsf3+0x37c>
   434e0:	01800804 	movi	r6,32
   434e4:	30cdc83a 	sub	r6,r6,r3
   434e8:	298c983a 	sll	r6,r5,r6
   434ec:	28cad83a 	srl	r5,r5,r3
   434f0:	3006c03a 	cmpne	r3,r6,zero
   434f4:	28cab03a 	or	r5,r5,r3
   434f8:	2149883a 	add	r4,r4,r5
   434fc:	20c1002c 	andhi	r3,r4,1024
   43500:	183fe226 	beq	r3,zero,4348c <__alt_data_end+0xfffdc38c>
   43504:	84000044 	addi	r16,r16,1
   43508:	00c03fc4 	movi	r3,255
   4350c:	80c05426 	beq	r16,r3,43660 <__addsf3+0x32c>
   43510:	00bf0034 	movhi	r2,64512
   43514:	10bfffc4 	addi	r2,r2,-1
   43518:	20c0004c 	andi	r3,r4,1
   4351c:	2088703a 	and	r4,r4,r2
   43520:	2008d07a 	srli	r4,r4,1
   43524:	20c8b03a 	or	r4,r4,r3
   43528:	003f9906 	br	43390 <__alt_data_end+0xfffdc290>
   4352c:	0007883a 	mov	r3,zero
   43530:	0005883a 	mov	r2,zero
   43534:	01002034 	movhi	r4,128
   43538:	213fffc4 	addi	r4,r4,-1
   4353c:	1908703a 	and	r4,r3,r4
   43540:	003fa106 	br	433c8 <__alt_data_end+0xfffdc2c8>
   43544:	10bfffc4 	addi	r2,r2,-1
   43548:	103fb926 	beq	r2,zero,43430 <__alt_data_end+0xfffdc330>
   4354c:	00c03fc4 	movi	r3,255
   43550:	80ffaf1e 	bne	r16,r3,43410 <__alt_data_end+0xfffdc310>
   43554:	003f8e06 	br	43390 <__alt_data_end+0xfffdc290>
   43558:	283f8d26 	beq	r5,zero,43390 <__alt_data_end+0xfffdc290>
   4355c:	18ffffc4 	addi	r3,r3,-1
   43560:	183fe526 	beq	r3,zero,434f8 <__alt_data_end+0xfffdc3f8>
   43564:	01803fc4 	movi	r6,255
   43568:	81bfdb1e 	bne	r16,r6,434d8 <__alt_data_end+0xfffdc3d8>
   4356c:	003f8806 	br	43390 <__alt_data_end+0xfffdc290>
   43570:	1000201e 	bne	r2,zero,435f4 <__addsf3+0x2c0>
   43574:	80800044 	addi	r2,r16,1
   43578:	10803fcc 	andi	r2,r2,255
   4357c:	01800044 	movi	r6,1
   43580:	3080450e 	bge	r6,r2,43698 <__addsf3+0x364>
   43584:	2165c83a 	sub	r18,r4,r5
   43588:	90c1002c 	andhi	r3,r18,1024
   4358c:	18002b26 	beq	r3,zero,4363c <__addsf3+0x308>
   43590:	2925c83a 	sub	r18,r5,r4
   43594:	3823883a 	mov	r17,r7
   43598:	003fab06 	br	43448 <__alt_data_end+0xfffdc348>
   4359c:	8805883a 	mov	r2,r17
   435a0:	043fffc4 	movi	r16,-1
   435a4:	0009883a 	mov	r4,zero
   435a8:	003f8706 	br	433c8 <__alt_data_end+0xfffdc2c8>
   435ac:	013f0034 	movhi	r4,64512
   435b0:	213fffc4 	addi	r4,r4,-1
   435b4:	80a1c83a 	sub	r16,r16,r2
   435b8:	9108703a 	and	r4,r18,r4
   435bc:	003f7406 	br	43390 <__alt_data_end+0xfffdc290>
   435c0:	1800411e 	bne	r3,zero,436c8 <__addsf3+0x394>
   435c4:	80c00044 	addi	r3,r16,1
   435c8:	19c03fcc 	andi	r7,r3,255
   435cc:	01800044 	movi	r6,1
   435d0:	31c0260e 	bge	r6,r7,4366c <__addsf3+0x338>
   435d4:	01803fc4 	movi	r6,255
   435d8:	19802126 	beq	r3,r6,43660 <__addsf3+0x32c>
   435dc:	2149883a 	add	r4,r4,r5
   435e0:	2008d07a 	srli	r4,r4,1
   435e4:	1821883a 	mov	r16,r3
   435e8:	003f6906 	br	43390 <__alt_data_end+0xfffdc290>
   435ec:	01400044 	movi	r5,1
   435f0:	003f8f06 	br	43430 <__alt_data_end+0xfffdc330>
   435f4:	8000151e 	bne	r16,zero,4364c <__addsf3+0x318>
   435f8:	20002f26 	beq	r4,zero,436b8 <__addsf3+0x384>
   435fc:	0084303a 	nor	r2,zero,r2
   43600:	10000a26 	beq	r2,zero,4362c <__addsf3+0x2f8>
   43604:	00c03fc4 	movi	r3,255
   43608:	30c02b26 	beq	r6,r3,436b8 <__addsf3+0x384>
   4360c:	00c006c4 	movi	r3,27
   43610:	18806d16 	blt	r3,r2,437c8 <__addsf3+0x494>
   43614:	00c00804 	movi	r3,32
   43618:	1887c83a 	sub	r3,r3,r2
   4361c:	20c6983a 	sll	r3,r4,r3
   43620:	2084d83a 	srl	r2,r4,r2
   43624:	1808c03a 	cmpne	r4,r3,zero
   43628:	1108b03a 	or	r4,r2,r4
   4362c:	2909c83a 	sub	r4,r5,r4
   43630:	3021883a 	mov	r16,r6
   43634:	3823883a 	mov	r17,r7
   43638:	003f7e06 	br	43434 <__alt_data_end+0xfffdc334>
   4363c:	903f821e 	bne	r18,zero,43448 <__alt_data_end+0xfffdc348>
   43640:	0005883a 	mov	r2,zero
   43644:	0021883a 	mov	r16,zero
   43648:	003fba06 	br	43534 <__alt_data_end+0xfffdc434>
   4364c:	00c03fc4 	movi	r3,255
   43650:	30c01926 	beq	r6,r3,436b8 <__addsf3+0x384>
   43654:	0085c83a 	sub	r2,zero,r2
   43658:	21010034 	orhi	r4,r4,1024
   4365c:	003feb06 	br	4360c <__alt_data_end+0xfffdc50c>
   43660:	043fffc4 	movi	r16,-1
   43664:	0009883a 	mov	r4,zero
   43668:	003f5706 	br	433c8 <__alt_data_end+0xfffdc2c8>
   4366c:	80004a1e 	bne	r16,zero,43798 <__addsf3+0x464>
   43670:	20005926 	beq	r4,zero,437d8 <__addsf3+0x4a4>
   43674:	283f4626 	beq	r5,zero,43390 <__alt_data_end+0xfffdc290>
   43678:	2149883a 	add	r4,r4,r5
   4367c:	2081002c 	andhi	r2,r4,1024
   43680:	103f8226 	beq	r2,zero,4348c <__alt_data_end+0xfffdc38c>
   43684:	00bf0034 	movhi	r2,64512
   43688:	10bfffc4 	addi	r2,r2,-1
   4368c:	3021883a 	mov	r16,r6
   43690:	2088703a 	and	r4,r4,r2
   43694:	003f3e06 	br	43390 <__alt_data_end+0xfffdc290>
   43698:	8000121e 	bne	r16,zero,436e4 <__addsf3+0x3b0>
   4369c:	2000261e 	bne	r4,zero,43738 <__addsf3+0x404>
   436a0:	283fa226 	beq	r5,zero,4352c <__alt_data_end+0xfffdc42c>
   436a4:	2809883a 	mov	r4,r5
   436a8:	3823883a 	mov	r17,r7
   436ac:	003f3806 	br	43390 <__alt_data_end+0xfffdc290>
   436b0:	01400044 	movi	r5,1
   436b4:	003f9006 	br	434f8 <__alt_data_end+0xfffdc3f8>
   436b8:	2809883a 	mov	r4,r5
   436bc:	3021883a 	mov	r16,r6
   436c0:	3823883a 	mov	r17,r7
   436c4:	003f3206 	br	43390 <__alt_data_end+0xfffdc290>
   436c8:	80000c1e 	bne	r16,zero,436fc <__addsf3+0x3c8>
   436cc:	20002f26 	beq	r4,zero,4378c <__addsf3+0x458>
   436d0:	00c6303a 	nor	r3,zero,r3
   436d4:	18002b1e 	bne	r3,zero,43784 <__addsf3+0x450>
   436d8:	2149883a 	add	r4,r4,r5
   436dc:	3021883a 	mov	r16,r6
   436e0:	003f8606 	br	434fc <__alt_data_end+0xfffdc3fc>
   436e4:	20001b1e 	bne	r4,zero,43754 <__addsf3+0x420>
   436e8:	28003926 	beq	r5,zero,437d0 <__addsf3+0x49c>
   436ec:	2809883a 	mov	r4,r5
   436f0:	3823883a 	mov	r17,r7
   436f4:	04003fc4 	movi	r16,255
   436f8:	003f2506 	br	43390 <__alt_data_end+0xfffdc290>
   436fc:	01c03fc4 	movi	r7,255
   43700:	31c02226 	beq	r6,r7,4378c <__addsf3+0x458>
   43704:	00c7c83a 	sub	r3,zero,r3
   43708:	21010034 	orhi	r4,r4,1024
   4370c:	01c006c4 	movi	r7,27
   43710:	38c03616 	blt	r7,r3,437ec <__addsf3+0x4b8>
   43714:	01c00804 	movi	r7,32
   43718:	38cfc83a 	sub	r7,r7,r3
   4371c:	21ce983a 	sll	r7,r4,r7
   43720:	20c6d83a 	srl	r3,r4,r3
   43724:	3808c03a 	cmpne	r4,r7,zero
   43728:	1906b03a 	or	r3,r3,r4
   4372c:	1949883a 	add	r4,r3,r5
   43730:	3021883a 	mov	r16,r6
   43734:	003f7106 	br	434fc <__alt_data_end+0xfffdc3fc>
   43738:	283f1526 	beq	r5,zero,43390 <__alt_data_end+0xfffdc290>
   4373c:	2145c83a 	sub	r2,r4,r5
   43740:	10c1002c 	andhi	r3,r2,1024
   43744:	183f4f26 	beq	r3,zero,43484 <__alt_data_end+0xfffdc384>
   43748:	2909c83a 	sub	r4,r5,r4
   4374c:	3823883a 	mov	r17,r7
   43750:	003f0f06 	br	43390 <__alt_data_end+0xfffdc290>
   43754:	28001a26 	beq	r5,zero,437c0 <__addsf3+0x48c>
   43758:	2008d0fa 	srli	r4,r4,3
   4375c:	2080102c 	andhi	r2,r4,64
   43760:	10000526 	beq	r2,zero,43778 <__addsf3+0x444>
   43764:	280ad0fa 	srli	r5,r5,3
   43768:	2880102c 	andhi	r2,r5,64
   4376c:	1000021e 	bne	r2,zero,43778 <__addsf3+0x444>
   43770:	2809883a 	mov	r4,r5
   43774:	3823883a 	mov	r17,r7
   43778:	200890fa 	slli	r4,r4,3
   4377c:	04003fc4 	movi	r16,255
   43780:	003f0306 	br	43390 <__alt_data_end+0xfffdc290>
   43784:	01c03fc4 	movi	r7,255
   43788:	31ffe01e 	bne	r6,r7,4370c <__alt_data_end+0xfffdc60c>
   4378c:	2809883a 	mov	r4,r5
   43790:	3021883a 	mov	r16,r6
   43794:	003efe06 	br	43390 <__alt_data_end+0xfffdc290>
   43798:	20001126 	beq	r4,zero,437e0 <__addsf3+0x4ac>
   4379c:	28000826 	beq	r5,zero,437c0 <__addsf3+0x48c>
   437a0:	2008d0fa 	srli	r4,r4,3
   437a4:	2080102c 	andhi	r2,r4,64
   437a8:	103ff326 	beq	r2,zero,43778 <__alt_data_end+0xfffdc678>
   437ac:	280ad0fa 	srli	r5,r5,3
   437b0:	2880102c 	andhi	r2,r5,64
   437b4:	103ff01e 	bne	r2,zero,43778 <__alt_data_end+0xfffdc678>
   437b8:	2809883a 	mov	r4,r5
   437bc:	003fee06 	br	43778 <__alt_data_end+0xfffdc678>
   437c0:	04003fc4 	movi	r16,255
   437c4:	003ef206 	br	43390 <__alt_data_end+0xfffdc290>
   437c8:	01000044 	movi	r4,1
   437cc:	003f9706 	br	4362c <__alt_data_end+0xfffdc52c>
   437d0:	0005883a 	mov	r2,zero
   437d4:	003f3406 	br	434a8 <__alt_data_end+0xfffdc3a8>
   437d8:	2809883a 	mov	r4,r5
   437dc:	003eec06 	br	43390 <__alt_data_end+0xfffdc290>
   437e0:	2809883a 	mov	r4,r5
   437e4:	04003fc4 	movi	r16,255
   437e8:	003ee906 	br	43390 <__alt_data_end+0xfffdc290>
   437ec:	00c00044 	movi	r3,1
   437f0:	003fce06 	br	4372c <__alt_data_end+0xfffdc62c>
   437f4:	0005883a 	mov	r2,zero
   437f8:	003f4e06 	br	43534 <__alt_data_end+0xfffdc434>

000437fc <__divsf3>:
   437fc:	defff504 	addi	sp,sp,-44
   43800:	200cd5fa 	srli	r6,r4,23
   43804:	dcc00415 	stw	r19,16(sp)
   43808:	2026d7fa 	srli	r19,r4,31
   4380c:	00c02034 	movhi	r3,128
   43810:	dd800715 	stw	r22,28(sp)
   43814:	dd000515 	stw	r20,20(sp)
   43818:	dc800315 	stw	r18,12(sp)
   4381c:	18ffffc4 	addi	r3,r3,-1
   43820:	dfc00a15 	stw	ra,40(sp)
   43824:	df000915 	stw	fp,36(sp)
   43828:	ddc00815 	stw	r23,32(sp)
   4382c:	dd400615 	stw	r21,24(sp)
   43830:	dc400215 	stw	r17,8(sp)
   43834:	dc000115 	stw	r16,4(sp)
   43838:	35003fcc 	andi	r20,r6,255
   4383c:	1924703a 	and	r18,r3,r4
   43840:	9d803fcc 	andi	r22,r19,255
   43844:	a0005226 	beq	r20,zero,43990 <__divsf3+0x194>
   43848:	00803fc4 	movi	r2,255
   4384c:	a0802e26 	beq	r20,r2,43908 <__divsf3+0x10c>
   43850:	91002034 	orhi	r4,r18,128
   43854:	202490fa 	slli	r18,r4,3
   43858:	a53fe044 	addi	r20,r20,-127
   4385c:	0021883a 	mov	r16,zero
   43860:	002f883a 	mov	r23,zero
   43864:	280cd5fa 	srli	r6,r5,23
   43868:	282ad7fa 	srli	r21,r5,31
   4386c:	00c02034 	movhi	r3,128
   43870:	18ffffc4 	addi	r3,r3,-1
   43874:	31803fcc 	andi	r6,r6,255
   43878:	1962703a 	and	r17,r3,r5
   4387c:	af003fcc 	andi	fp,r21,255
   43880:	30004a26 	beq	r6,zero,439ac <__divsf3+0x1b0>
   43884:	00803fc4 	movi	r2,255
   43888:	30804526 	beq	r6,r2,439a0 <__divsf3+0x1a4>
   4388c:	89402034 	orhi	r5,r17,128
   43890:	282290fa 	slli	r17,r5,3
   43894:	31bfe044 	addi	r6,r6,-127
   43898:	000b883a 	mov	r5,zero
   4389c:	2c20b03a 	or	r16,r5,r16
   438a0:	802090ba 	slli	r16,r16,2
   438a4:	00800134 	movhi	r2,4
   438a8:	108e3204 	addi	r2,r2,14536
   438ac:	80a1883a 	add	r16,r16,r2
   438b0:	81000017 	ldw	r4,0(r16)
   438b4:	9d46f03a 	xor	r3,r19,r21
   438b8:	180f883a 	mov	r7,r3
   438bc:	18803fcc 	andi	r2,r3,255
   438c0:	a18dc83a 	sub	r6,r20,r6
   438c4:	2000683a 	jmp	r4
   438c8:	00043aac 	andhi	zero,zero,4330
   438cc:	00043930 	cmpltui	zero,zero,4324
   438d0:	00043aa0 	cmpeqi	zero,zero,4330
   438d4:	0004391c 	xori	zero,zero,4324
   438d8:	00043aa0 	cmpeqi	zero,zero,4330
   438dc:	00043a78 	rdprs	zero,zero,4329
   438e0:	00043aa0 	cmpeqi	zero,zero,4330
   438e4:	0004391c 	xori	zero,zero,4324
   438e8:	00043930 	cmpltui	zero,zero,4324
   438ec:	00043930 	cmpltui	zero,zero,4324
   438f0:	00043a78 	rdprs	zero,zero,4329
   438f4:	0004391c 	xori	zero,zero,4324
   438f8:	00043b8c 	andi	zero,zero,4334
   438fc:	00043b8c 	andi	zero,zero,4334
   43900:	00043b8c 	andi	zero,zero,4334
   43904:	00043b40 	call	43b4 <__alt_mem_onchip_memory2-0x3bc4c>
   43908:	9000581e 	bne	r18,zero,43a6c <__divsf3+0x270>
   4390c:	04000204 	movi	r16,8
   43910:	05c00084 	movi	r23,2
   43914:	003fd306 	br	43864 <__alt_data_end+0xfffdc764>
   43918:	0023883a 	mov	r17,zero
   4391c:	e02d883a 	mov	r22,fp
   43920:	282f883a 	mov	r23,r5
   43924:	00800084 	movi	r2,2
   43928:	b8808f1e 	bne	r23,r2,43b68 <__divsf3+0x36c>
   4392c:	b005883a 	mov	r2,r22
   43930:	11c0004c 	andi	r7,r2,1
   43934:	013fffc4 	movi	r4,-1
   43938:	000d883a 	mov	r6,zero
   4393c:	21003fcc 	andi	r4,r4,255
   43940:	200895fa 	slli	r4,r4,23
   43944:	38803fcc 	andi	r2,r7,255
   43948:	00c02034 	movhi	r3,128
   4394c:	100497fa 	slli	r2,r2,31
   43950:	18ffffc4 	addi	r3,r3,-1
   43954:	30c6703a 	and	r3,r6,r3
   43958:	1906b03a 	or	r3,r3,r4
   4395c:	1884b03a 	or	r2,r3,r2
   43960:	dfc00a17 	ldw	ra,40(sp)
   43964:	df000917 	ldw	fp,36(sp)
   43968:	ddc00817 	ldw	r23,32(sp)
   4396c:	dd800717 	ldw	r22,28(sp)
   43970:	dd400617 	ldw	r21,24(sp)
   43974:	dd000517 	ldw	r20,20(sp)
   43978:	dcc00417 	ldw	r19,16(sp)
   4397c:	dc800317 	ldw	r18,12(sp)
   43980:	dc400217 	ldw	r17,8(sp)
   43984:	dc000117 	ldw	r16,4(sp)
   43988:	dec00b04 	addi	sp,sp,44
   4398c:	f800283a 	ret
   43990:	90002b1e 	bne	r18,zero,43a40 <__divsf3+0x244>
   43994:	04000104 	movi	r16,4
   43998:	05c00044 	movi	r23,1
   4399c:	003fb106 	br	43864 <__alt_data_end+0xfffdc764>
   439a0:	8800251e 	bne	r17,zero,43a38 <__divsf3+0x23c>
   439a4:	01400084 	movi	r5,2
   439a8:	00000206 	br	439b4 <__divsf3+0x1b8>
   439ac:	88001a1e 	bne	r17,zero,43a18 <__divsf3+0x21c>
   439b0:	01400044 	movi	r5,1
   439b4:	8160b03a 	or	r16,r16,r5
   439b8:	802090ba 	slli	r16,r16,2
   439bc:	00c00134 	movhi	r3,4
   439c0:	18ce7604 	addi	r3,r3,14808
   439c4:	80e1883a 	add	r16,r16,r3
   439c8:	80c00017 	ldw	r3,0(r16)
   439cc:	9d44f03a 	xor	r2,r19,r21
   439d0:	a18dc83a 	sub	r6,r20,r6
   439d4:	1800683a 	jmp	r3
   439d8:	00043930 	cmpltui	zero,zero,4324
   439dc:	00043930 	cmpltui	zero,zero,4324
   439e0:	00043b7c 	xorhi	zero,zero,4333
   439e4:	00043918 	cmpnei	zero,zero,4324
   439e8:	00043b7c 	xorhi	zero,zero,4333
   439ec:	00043a78 	rdprs	zero,zero,4329
   439f0:	00043b7c 	xorhi	zero,zero,4333
   439f4:	00043918 	cmpnei	zero,zero,4324
   439f8:	00043930 	cmpltui	zero,zero,4324
   439fc:	00043930 	cmpltui	zero,zero,4324
   43a00:	00043a78 	rdprs	zero,zero,4329
   43a04:	00043918 	cmpnei	zero,zero,4324
   43a08:	00043b8c 	andi	zero,zero,4334
   43a0c:	00043b8c 	andi	zero,zero,4334
   43a10:	00043b8c 	andi	zero,zero,4334
   43a14:	00043ba4 	muli	zero,zero,4334
   43a18:	8809883a 	mov	r4,r17
   43a1c:	0046f540 	call	46f54 <__clzsi2>
   43a20:	10fffec4 	addi	r3,r2,-5
   43a24:	10801d84 	addi	r2,r2,118
   43a28:	88e2983a 	sll	r17,r17,r3
   43a2c:	008dc83a 	sub	r6,zero,r2
   43a30:	000b883a 	mov	r5,zero
   43a34:	003f9906 	br	4389c <__alt_data_end+0xfffdc79c>
   43a38:	014000c4 	movi	r5,3
   43a3c:	003f9706 	br	4389c <__alt_data_end+0xfffdc79c>
   43a40:	9009883a 	mov	r4,r18
   43a44:	d9400015 	stw	r5,0(sp)
   43a48:	0046f540 	call	46f54 <__clzsi2>
   43a4c:	10fffec4 	addi	r3,r2,-5
   43a50:	11801d84 	addi	r6,r2,118
   43a54:	90e4983a 	sll	r18,r18,r3
   43a58:	01a9c83a 	sub	r20,zero,r6
   43a5c:	0021883a 	mov	r16,zero
   43a60:	002f883a 	mov	r23,zero
   43a64:	d9400017 	ldw	r5,0(sp)
   43a68:	003f7e06 	br	43864 <__alt_data_end+0xfffdc764>
   43a6c:	04000304 	movi	r16,12
   43a70:	05c000c4 	movi	r23,3
   43a74:	003f7b06 	br	43864 <__alt_data_end+0xfffdc764>
   43a78:	01802034 	movhi	r6,128
   43a7c:	000f883a 	mov	r7,zero
   43a80:	31bfffc4 	addi	r6,r6,-1
   43a84:	013fffc4 	movi	r4,-1
   43a88:	003fac06 	br	4393c <__alt_data_end+0xfffdc83c>
   43a8c:	01400044 	movi	r5,1
   43a90:	2909c83a 	sub	r4,r5,r4
   43a94:	00c006c4 	movi	r3,27
   43a98:	19004b0e 	bge	r3,r4,43bc8 <__divsf3+0x3cc>
   43a9c:	114e703a 	and	r7,r2,r5
   43aa0:	0009883a 	mov	r4,zero
   43aa4:	000d883a 	mov	r6,zero
   43aa8:	003fa406 	br	4393c <__alt_data_end+0xfffdc83c>
   43aac:	9006917a 	slli	r3,r18,5
   43ab0:	8822917a 	slli	r17,r17,5
   43ab4:	1c40372e 	bgeu	r3,r17,43b94 <__divsf3+0x398>
   43ab8:	31bfffc4 	addi	r6,r6,-1
   43abc:	010006c4 	movi	r4,27
   43ac0:	000b883a 	mov	r5,zero
   43ac4:	180f883a 	mov	r7,r3
   43ac8:	294b883a 	add	r5,r5,r5
   43acc:	18c7883a 	add	r3,r3,r3
   43ad0:	38000116 	blt	r7,zero,43ad8 <__divsf3+0x2dc>
   43ad4:	1c400236 	bltu	r3,r17,43ae0 <__divsf3+0x2e4>
   43ad8:	1c47c83a 	sub	r3,r3,r17
   43adc:	29400054 	ori	r5,r5,1
   43ae0:	213fffc4 	addi	r4,r4,-1
   43ae4:	203ff71e 	bne	r4,zero,43ac4 <__alt_data_end+0xfffdc9c4>
   43ae8:	1806c03a 	cmpne	r3,r3,zero
   43aec:	1962b03a 	or	r17,r3,r5
   43af0:	31001fc4 	addi	r4,r6,127
   43af4:	013fe50e 	bge	zero,r4,43a8c <__alt_data_end+0xfffdc98c>
   43af8:	88c001cc 	andi	r3,r17,7
   43afc:	18000426 	beq	r3,zero,43b10 <__divsf3+0x314>
   43b00:	88c003cc 	andi	r3,r17,15
   43b04:	01400104 	movi	r5,4
   43b08:	19400126 	beq	r3,r5,43b10 <__divsf3+0x314>
   43b0c:	8963883a 	add	r17,r17,r5
   43b10:	88c2002c 	andhi	r3,r17,2048
   43b14:	18000426 	beq	r3,zero,43b28 <__divsf3+0x32c>
   43b18:	00fe0034 	movhi	r3,63488
   43b1c:	18ffffc4 	addi	r3,r3,-1
   43b20:	31002004 	addi	r4,r6,128
   43b24:	88e2703a 	and	r17,r17,r3
   43b28:	00c03f84 	movi	r3,254
   43b2c:	193f8016 	blt	r3,r4,43930 <__alt_data_end+0xfffdc830>
   43b30:	880c91ba 	slli	r6,r17,6
   43b34:	11c0004c 	andi	r7,r2,1
   43b38:	300cd27a 	srli	r6,r6,9
   43b3c:	003f7f06 	br	4393c <__alt_data_end+0xfffdc83c>
   43b40:	9080102c 	andhi	r2,r18,64
   43b44:	10000226 	beq	r2,zero,43b50 <__divsf3+0x354>
   43b48:	8880102c 	andhi	r2,r17,64
   43b4c:	10001826 	beq	r2,zero,43bb0 <__divsf3+0x3b4>
   43b50:	00802034 	movhi	r2,128
   43b54:	91801034 	orhi	r6,r18,64
   43b58:	10bfffc4 	addi	r2,r2,-1
   43b5c:	980f883a 	mov	r7,r19
   43b60:	308c703a 	and	r6,r6,r2
   43b64:	003fc706 	br	43a84 <__alt_data_end+0xfffdc984>
   43b68:	008000c4 	movi	r2,3
   43b6c:	b8802d26 	beq	r23,r2,43c24 <__divsf3+0x428>
   43b70:	00c00044 	movi	r3,1
   43b74:	b005883a 	mov	r2,r22
   43b78:	b8ffdd1e 	bne	r23,r3,43af0 <__alt_data_end+0xfffdc9f0>
   43b7c:	11c0004c 	andi	r7,r2,1
   43b80:	0009883a 	mov	r4,zero
   43b84:	000d883a 	mov	r6,zero
   43b88:	003f6c06 	br	4393c <__alt_data_end+0xfffdc83c>
   43b8c:	9023883a 	mov	r17,r18
   43b90:	003f6406 	br	43924 <__alt_data_end+0xfffdc824>
   43b94:	1c47c83a 	sub	r3,r3,r17
   43b98:	01000684 	movi	r4,26
   43b9c:	01400044 	movi	r5,1
   43ba0:	003fc806 	br	43ac4 <__alt_data_end+0xfffdc9c4>
   43ba4:	9080102c 	andhi	r2,r18,64
   43ba8:	103fe926 	beq	r2,zero,43b50 <__alt_data_end+0xfffdca50>
   43bac:	0023883a 	mov	r17,zero
   43bb0:	00802034 	movhi	r2,128
   43bb4:	89801034 	orhi	r6,r17,64
   43bb8:	10bfffc4 	addi	r2,r2,-1
   43bbc:	a80f883a 	mov	r7,r21
   43bc0:	308c703a 	and	r6,r6,r2
   43bc4:	003faf06 	br	43a84 <__alt_data_end+0xfffdc984>
   43bc8:	01c00804 	movi	r7,32
   43bcc:	390fc83a 	sub	r7,r7,r4
   43bd0:	89ce983a 	sll	r7,r17,r7
   43bd4:	890ad83a 	srl	r5,r17,r4
   43bd8:	380ec03a 	cmpne	r7,r7,zero
   43bdc:	29cab03a 	or	r5,r5,r7
   43be0:	28c001cc 	andi	r3,r5,7
   43be4:	18000426 	beq	r3,zero,43bf8 <__divsf3+0x3fc>
   43be8:	28c003cc 	andi	r3,r5,15
   43bec:	01000104 	movi	r4,4
   43bf0:	19000126 	beq	r3,r4,43bf8 <__divsf3+0x3fc>
   43bf4:	290b883a 	add	r5,r5,r4
   43bf8:	28c1002c 	andhi	r3,r5,1024
   43bfc:	18000426 	beq	r3,zero,43c10 <__divsf3+0x414>
   43c00:	11c0004c 	andi	r7,r2,1
   43c04:	01000044 	movi	r4,1
   43c08:	000d883a 	mov	r6,zero
   43c0c:	003f4b06 	br	4393c <__alt_data_end+0xfffdc83c>
   43c10:	280a91ba 	slli	r5,r5,6
   43c14:	11c0004c 	andi	r7,r2,1
   43c18:	0009883a 	mov	r4,zero
   43c1c:	280cd27a 	srli	r6,r5,9
   43c20:	003f4606 	br	4393c <__alt_data_end+0xfffdc83c>
   43c24:	00802034 	movhi	r2,128
   43c28:	89801034 	orhi	r6,r17,64
   43c2c:	10bfffc4 	addi	r2,r2,-1
   43c30:	b00f883a 	mov	r7,r22
   43c34:	308c703a 	and	r6,r6,r2
   43c38:	003f9206 	br	43a84 <__alt_data_end+0xfffdc984>

00043c3c <__gesf2>:
   43c3c:	2004d5fa 	srli	r2,r4,23
   43c40:	2806d5fa 	srli	r3,r5,23
   43c44:	01802034 	movhi	r6,128
   43c48:	31bfffc4 	addi	r6,r6,-1
   43c4c:	10803fcc 	andi	r2,r2,255
   43c50:	01c03fc4 	movi	r7,255
   43c54:	3110703a 	and	r8,r6,r4
   43c58:	18c03fcc 	andi	r3,r3,255
   43c5c:	314c703a 	and	r6,r6,r5
   43c60:	2008d7fa 	srli	r4,r4,31
   43c64:	280ad7fa 	srli	r5,r5,31
   43c68:	11c01926 	beq	r2,r7,43cd0 <__gesf2+0x94>
   43c6c:	01c03fc4 	movi	r7,255
   43c70:	19c00f26 	beq	r3,r7,43cb0 <__gesf2+0x74>
   43c74:	1000061e 	bne	r2,zero,43c90 <__gesf2+0x54>
   43c78:	400f003a 	cmpeq	r7,r8,zero
   43c7c:	1800071e 	bne	r3,zero,43c9c <__gesf2+0x60>
   43c80:	3000061e 	bne	r6,zero,43c9c <__gesf2+0x60>
   43c84:	0005883a 	mov	r2,zero
   43c88:	40000e1e 	bne	r8,zero,43cc4 <__gesf2+0x88>
   43c8c:	f800283a 	ret
   43c90:	18000a1e 	bne	r3,zero,43cbc <__gesf2+0x80>
   43c94:	30000b26 	beq	r6,zero,43cc4 <__gesf2+0x88>
   43c98:	000f883a 	mov	r7,zero
   43c9c:	29403fcc 	andi	r5,r5,255
   43ca0:	38000726 	beq	r7,zero,43cc0 <__gesf2+0x84>
   43ca4:	28000826 	beq	r5,zero,43cc8 <__gesf2+0x8c>
   43ca8:	00800044 	movi	r2,1
   43cac:	f800283a 	ret
   43cb0:	303ff026 	beq	r6,zero,43c74 <__alt_data_end+0xfffdcb74>
   43cb4:	00bfff84 	movi	r2,-2
   43cb8:	f800283a 	ret
   43cbc:	29403fcc 	andi	r5,r5,255
   43cc0:	21400526 	beq	r4,r5,43cd8 <__gesf2+0x9c>
   43cc4:	203ff826 	beq	r4,zero,43ca8 <__alt_data_end+0xfffdcba8>
   43cc8:	00bfffc4 	movi	r2,-1
   43ccc:	f800283a 	ret
   43cd0:	403fe626 	beq	r8,zero,43c6c <__alt_data_end+0xfffdcb6c>
   43cd4:	003ff706 	br	43cb4 <__alt_data_end+0xfffdcbb4>
   43cd8:	18bffa16 	blt	r3,r2,43cc4 <__alt_data_end+0xfffdcbc4>
   43cdc:	10c00216 	blt	r2,r3,43ce8 <__gesf2+0xac>
   43ce0:	323ff836 	bltu	r6,r8,43cc4 <__alt_data_end+0xfffdcbc4>
   43ce4:	4180022e 	bgeu	r8,r6,43cf0 <__gesf2+0xb4>
   43ce8:	203fef1e 	bne	r4,zero,43ca8 <__alt_data_end+0xfffdcba8>
   43cec:	003ff606 	br	43cc8 <__alt_data_end+0xfffdcbc8>
   43cf0:	0005883a 	mov	r2,zero
   43cf4:	f800283a 	ret

00043cf8 <__lesf2>:
   43cf8:	2004d5fa 	srli	r2,r4,23
   43cfc:	280cd5fa 	srli	r6,r5,23
   43d00:	00c02034 	movhi	r3,128
   43d04:	18ffffc4 	addi	r3,r3,-1
   43d08:	10803fcc 	andi	r2,r2,255
   43d0c:	01c03fc4 	movi	r7,255
   43d10:	1910703a 	and	r8,r3,r4
   43d14:	31803fcc 	andi	r6,r6,255
   43d18:	1946703a 	and	r3,r3,r5
   43d1c:	2008d7fa 	srli	r4,r4,31
   43d20:	280ad7fa 	srli	r5,r5,31
   43d24:	11c01b26 	beq	r2,r7,43d94 <__lesf2+0x9c>
   43d28:	01c03fc4 	movi	r7,255
   43d2c:	31c01126 	beq	r6,r7,43d74 <__lesf2+0x7c>
   43d30:	1000071e 	bne	r2,zero,43d50 <__lesf2+0x58>
   43d34:	400f003a 	cmpeq	r7,r8,zero
   43d38:	21003fcc 	andi	r4,r4,255
   43d3c:	3000081e 	bne	r6,zero,43d60 <__lesf2+0x68>
   43d40:	1800071e 	bne	r3,zero,43d60 <__lesf2+0x68>
   43d44:	0005883a 	mov	r2,zero
   43d48:	40000f1e 	bne	r8,zero,43d88 <__lesf2+0x90>
   43d4c:	f800283a 	ret
   43d50:	21003fcc 	andi	r4,r4,255
   43d54:	30000a1e 	bne	r6,zero,43d80 <__lesf2+0x88>
   43d58:	18000b26 	beq	r3,zero,43d88 <__lesf2+0x90>
   43d5c:	000f883a 	mov	r7,zero
   43d60:	29403fcc 	andi	r5,r5,255
   43d64:	38000726 	beq	r7,zero,43d84 <__lesf2+0x8c>
   43d68:	28000826 	beq	r5,zero,43d8c <__lesf2+0x94>
   43d6c:	00800044 	movi	r2,1
   43d70:	f800283a 	ret
   43d74:	183fee26 	beq	r3,zero,43d30 <__alt_data_end+0xfffdcc30>
   43d78:	00800084 	movi	r2,2
   43d7c:	f800283a 	ret
   43d80:	29403fcc 	andi	r5,r5,255
   43d84:	21400626 	beq	r4,r5,43da0 <__lesf2+0xa8>
   43d88:	203ff826 	beq	r4,zero,43d6c <__alt_data_end+0xfffdcc6c>
   43d8c:	00bfffc4 	movi	r2,-1
   43d90:	f800283a 	ret
   43d94:	403fe426 	beq	r8,zero,43d28 <__alt_data_end+0xfffdcc28>
   43d98:	00800084 	movi	r2,2
   43d9c:	f800283a 	ret
   43da0:	30bff916 	blt	r6,r2,43d88 <__alt_data_end+0xfffdcc88>
   43da4:	11800216 	blt	r2,r6,43db0 <__lesf2+0xb8>
   43da8:	1a3ff736 	bltu	r3,r8,43d88 <__alt_data_end+0xfffdcc88>
   43dac:	40c0022e 	bgeu	r8,r3,43db8 <__lesf2+0xc0>
   43db0:	203fee1e 	bne	r4,zero,43d6c <__alt_data_end+0xfffdcc6c>
   43db4:	003ff506 	br	43d8c <__alt_data_end+0xfffdcc8c>
   43db8:	0005883a 	mov	r2,zero
   43dbc:	f800283a 	ret

00043dc0 <__mulsf3>:
   43dc0:	defff504 	addi	sp,sp,-44
   43dc4:	dc000115 	stw	r16,4(sp)
   43dc8:	2020d5fa 	srli	r16,r4,23
   43dcc:	dd400615 	stw	r21,24(sp)
   43dd0:	202ad7fa 	srli	r21,r4,31
   43dd4:	dc800315 	stw	r18,12(sp)
   43dd8:	04802034 	movhi	r18,128
   43ddc:	df000915 	stw	fp,36(sp)
   43de0:	dd000515 	stw	r20,20(sp)
   43de4:	94bfffc4 	addi	r18,r18,-1
   43de8:	dfc00a15 	stw	ra,40(sp)
   43dec:	ddc00815 	stw	r23,32(sp)
   43df0:	dd800715 	stw	r22,28(sp)
   43df4:	dcc00415 	stw	r19,16(sp)
   43df8:	dc400215 	stw	r17,8(sp)
   43dfc:	84003fcc 	andi	r16,r16,255
   43e00:	9124703a 	and	r18,r18,r4
   43e04:	a829883a 	mov	r20,r21
   43e08:	af003fcc 	andi	fp,r21,255
   43e0c:	80005426 	beq	r16,zero,43f60 <__mulsf3+0x1a0>
   43e10:	00803fc4 	movi	r2,255
   43e14:	80802f26 	beq	r16,r2,43ed4 <__mulsf3+0x114>
   43e18:	91002034 	orhi	r4,r18,128
   43e1c:	202490fa 	slli	r18,r4,3
   43e20:	843fe044 	addi	r16,r16,-127
   43e24:	0023883a 	mov	r17,zero
   43e28:	002f883a 	mov	r23,zero
   43e2c:	2804d5fa 	srli	r2,r5,23
   43e30:	282cd7fa 	srli	r22,r5,31
   43e34:	01002034 	movhi	r4,128
   43e38:	213fffc4 	addi	r4,r4,-1
   43e3c:	10803fcc 	andi	r2,r2,255
   43e40:	2166703a 	and	r19,r4,r5
   43e44:	b1803fcc 	andi	r6,r22,255
   43e48:	10004c26 	beq	r2,zero,43f7c <__mulsf3+0x1bc>
   43e4c:	00c03fc4 	movi	r3,255
   43e50:	10c04726 	beq	r2,r3,43f70 <__mulsf3+0x1b0>
   43e54:	99002034 	orhi	r4,r19,128
   43e58:	202690fa 	slli	r19,r4,3
   43e5c:	10bfe044 	addi	r2,r2,-127
   43e60:	0007883a 	mov	r3,zero
   43e64:	80a1883a 	add	r16,r16,r2
   43e68:	010003c4 	movi	r4,15
   43e6c:	1c44b03a 	or	r2,r3,r17
   43e70:	b56af03a 	xor	r21,r22,r21
   43e74:	81c00044 	addi	r7,r16,1
   43e78:	20806b36 	bltu	r4,r2,44028 <__mulsf3+0x268>
   43e7c:	100490ba 	slli	r2,r2,2
   43e80:	01000134 	movhi	r4,4
   43e84:	210fa504 	addi	r4,r4,16020
   43e88:	1105883a 	add	r2,r2,r4
   43e8c:	10800017 	ldw	r2,0(r2)
   43e90:	1000683a 	jmp	r2
   43e94:	00044028 	cmpgeui	zero,zero,4352
   43e98:	00043ee8 	cmpgeui	zero,zero,4347
   43e9c:	00043ee8 	cmpgeui	zero,zero,4347
   43ea0:	00043ee4 	muli	zero,zero,4347
   43ea4:	0004400c 	andi	zero,zero,4352
   43ea8:	0004400c 	andi	zero,zero,4352
   43eac:	00043ff8 	rdprs	zero,zero,4351
   43eb0:	00043ee4 	muli	zero,zero,4347
   43eb4:	0004400c 	andi	zero,zero,4352
   43eb8:	00043ff8 	rdprs	zero,zero,4351
   43ebc:	0004400c 	andi	zero,zero,4352
   43ec0:	00043ee4 	muli	zero,zero,4347
   43ec4:	00044018 	cmpnei	zero,zero,4352
   43ec8:	00044018 	cmpnei	zero,zero,4352
   43ecc:	00044018 	cmpnei	zero,zero,4352
   43ed0:	000440f4 	movhi	zero,4355
   43ed4:	90003b1e 	bne	r18,zero,43fc4 <__mulsf3+0x204>
   43ed8:	04400204 	movi	r17,8
   43edc:	05c00084 	movi	r23,2
   43ee0:	003fd206 	br	43e2c <__alt_data_end+0xfffdcd2c>
   43ee4:	302b883a 	mov	r21,r6
   43ee8:	00800084 	movi	r2,2
   43eec:	18802626 	beq	r3,r2,43f88 <__mulsf3+0x1c8>
   43ef0:	008000c4 	movi	r2,3
   43ef4:	1880ab26 	beq	r3,r2,441a4 <__mulsf3+0x3e4>
   43ef8:	00800044 	movi	r2,1
   43efc:	1880a21e 	bne	r3,r2,44188 <__mulsf3+0x3c8>
   43f00:	a829883a 	mov	r20,r21
   43f04:	0007883a 	mov	r3,zero
   43f08:	0009883a 	mov	r4,zero
   43f0c:	18803fcc 	andi	r2,r3,255
   43f10:	100695fa 	slli	r3,r2,23
   43f14:	a0803fcc 	andi	r2,r20,255
   43f18:	100a97fa 	slli	r5,r2,31
   43f1c:	00802034 	movhi	r2,128
   43f20:	10bfffc4 	addi	r2,r2,-1
   43f24:	2084703a 	and	r2,r4,r2
   43f28:	10c4b03a 	or	r2,r2,r3
   43f2c:	1144b03a 	or	r2,r2,r5
   43f30:	dfc00a17 	ldw	ra,40(sp)
   43f34:	df000917 	ldw	fp,36(sp)
   43f38:	ddc00817 	ldw	r23,32(sp)
   43f3c:	dd800717 	ldw	r22,28(sp)
   43f40:	dd400617 	ldw	r21,24(sp)
   43f44:	dd000517 	ldw	r20,20(sp)
   43f48:	dcc00417 	ldw	r19,16(sp)
   43f4c:	dc800317 	ldw	r18,12(sp)
   43f50:	dc400217 	ldw	r17,8(sp)
   43f54:	dc000117 	ldw	r16,4(sp)
   43f58:	dec00b04 	addi	sp,sp,44
   43f5c:	f800283a 	ret
   43f60:	90000d1e 	bne	r18,zero,43f98 <__mulsf3+0x1d8>
   43f64:	04400104 	movi	r17,4
   43f68:	05c00044 	movi	r23,1
   43f6c:	003faf06 	br	43e2c <__alt_data_end+0xfffdcd2c>
   43f70:	9806c03a 	cmpne	r3,r19,zero
   43f74:	18c00084 	addi	r3,r3,2
   43f78:	003fba06 	br	43e64 <__alt_data_end+0xfffdcd64>
   43f7c:	9800141e 	bne	r19,zero,43fd0 <__mulsf3+0x210>
   43f80:	00c00044 	movi	r3,1
   43f84:	003fb706 	br	43e64 <__alt_data_end+0xfffdcd64>
   43f88:	a829883a 	mov	r20,r21
   43f8c:	00ffffc4 	movi	r3,-1
   43f90:	0009883a 	mov	r4,zero
   43f94:	003fdd06 	br	43f0c <__alt_data_end+0xfffdce0c>
   43f98:	9009883a 	mov	r4,r18
   43f9c:	d9400015 	stw	r5,0(sp)
   43fa0:	0046f540 	call	46f54 <__clzsi2>
   43fa4:	10fffec4 	addi	r3,r2,-5
   43fa8:	10801d84 	addi	r2,r2,118
   43fac:	90e4983a 	sll	r18,r18,r3
   43fb0:	00a1c83a 	sub	r16,zero,r2
   43fb4:	0023883a 	mov	r17,zero
   43fb8:	002f883a 	mov	r23,zero
   43fbc:	d9400017 	ldw	r5,0(sp)
   43fc0:	003f9a06 	br	43e2c <__alt_data_end+0xfffdcd2c>
   43fc4:	04400304 	movi	r17,12
   43fc8:	05c000c4 	movi	r23,3
   43fcc:	003f9706 	br	43e2c <__alt_data_end+0xfffdcd2c>
   43fd0:	9809883a 	mov	r4,r19
   43fd4:	d9800015 	stw	r6,0(sp)
   43fd8:	0046f540 	call	46f54 <__clzsi2>
   43fdc:	10fffec4 	addi	r3,r2,-5
   43fe0:	10801d84 	addi	r2,r2,118
   43fe4:	98e6983a 	sll	r19,r19,r3
   43fe8:	0085c83a 	sub	r2,zero,r2
   43fec:	0007883a 	mov	r3,zero
   43ff0:	d9800017 	ldw	r6,0(sp)
   43ff4:	003f9b06 	br	43e64 <__alt_data_end+0xfffdcd64>
   43ff8:	01002034 	movhi	r4,128
   43ffc:	0029883a 	mov	r20,zero
   44000:	213fffc4 	addi	r4,r4,-1
   44004:	00ffffc4 	movi	r3,-1
   44008:	003fc006 	br	43f0c <__alt_data_end+0xfffdce0c>
   4400c:	9027883a 	mov	r19,r18
   44010:	b807883a 	mov	r3,r23
   44014:	003fb406 	br	43ee8 <__alt_data_end+0xfffdcde8>
   44018:	9027883a 	mov	r19,r18
   4401c:	e02b883a 	mov	r21,fp
   44020:	b807883a 	mov	r3,r23
   44024:	003fb006 	br	43ee8 <__alt_data_end+0xfffdcde8>
   44028:	9004d43a 	srli	r2,r18,16
   4402c:	9810d43a 	srli	r8,r19,16
   44030:	94bfffcc 	andi	r18,r18,65535
   44034:	993fffcc 	andi	r4,r19,65535
   44038:	910d383a 	mul	r6,r18,r4
   4403c:	20a7383a 	mul	r19,r4,r2
   44040:	9225383a 	mul	r18,r18,r8
   44044:	3006d43a 	srli	r3,r6,16
   44048:	1211383a 	mul	r8,r2,r8
   4404c:	94e5883a 	add	r18,r18,r19
   44050:	1c87883a 	add	r3,r3,r18
   44054:	1cc0022e 	bgeu	r3,r19,44060 <__mulsf3+0x2a0>
   44058:	00800074 	movhi	r2,1
   4405c:	4091883a 	add	r8,r8,r2
   44060:	1804943a 	slli	r2,r3,16
   44064:	31bfffcc 	andi	r6,r6,65535
   44068:	1806d43a 	srli	r3,r3,16
   4406c:	1185883a 	add	r2,r2,r6
   44070:	102691ba 	slli	r19,r2,6
   44074:	1a07883a 	add	r3,r3,r8
   44078:	1004d6ba 	srli	r2,r2,26
   4407c:	180891ba 	slli	r4,r3,6
   44080:	9826c03a 	cmpne	r19,r19,zero
   44084:	9884b03a 	or	r2,r19,r2
   44088:	1126b03a 	or	r19,r2,r4
   4408c:	9882002c 	andhi	r2,r19,2048
   44090:	10000426 	beq	r2,zero,440a4 <__mulsf3+0x2e4>
   44094:	9804d07a 	srli	r2,r19,1
   44098:	9900004c 	andi	r4,r19,1
   4409c:	3821883a 	mov	r16,r7
   440a0:	1126b03a 	or	r19,r2,r4
   440a4:	80c01fc4 	addi	r3,r16,127
   440a8:	00c0210e 	bge	zero,r3,44130 <__mulsf3+0x370>
   440ac:	988001cc 	andi	r2,r19,7
   440b0:	10000426 	beq	r2,zero,440c4 <__mulsf3+0x304>
   440b4:	988003cc 	andi	r2,r19,15
   440b8:	01000104 	movi	r4,4
   440bc:	11000126 	beq	r2,r4,440c4 <__mulsf3+0x304>
   440c0:	9927883a 	add	r19,r19,r4
   440c4:	9882002c 	andhi	r2,r19,2048
   440c8:	10000426 	beq	r2,zero,440dc <__mulsf3+0x31c>
   440cc:	00be0034 	movhi	r2,63488
   440d0:	10bfffc4 	addi	r2,r2,-1
   440d4:	80c02004 	addi	r3,r16,128
   440d8:	98a6703a 	and	r19,r19,r2
   440dc:	00803f84 	movi	r2,254
   440e0:	10ffa916 	blt	r2,r3,43f88 <__alt_data_end+0xfffdce88>
   440e4:	980891ba 	slli	r4,r19,6
   440e8:	a829883a 	mov	r20,r21
   440ec:	2008d27a 	srli	r4,r4,9
   440f0:	003f8606 	br	43f0c <__alt_data_end+0xfffdce0c>
   440f4:	9080102c 	andhi	r2,r18,64
   440f8:	10000826 	beq	r2,zero,4411c <__mulsf3+0x35c>
   440fc:	9880102c 	andhi	r2,r19,64
   44100:	1000061e 	bne	r2,zero,4411c <__mulsf3+0x35c>
   44104:	00802034 	movhi	r2,128
   44108:	99001034 	orhi	r4,r19,64
   4410c:	10bfffc4 	addi	r2,r2,-1
   44110:	b029883a 	mov	r20,r22
   44114:	2088703a 	and	r4,r4,r2
   44118:	003fba06 	br	44004 <__alt_data_end+0xfffdcf04>
   4411c:	00802034 	movhi	r2,128
   44120:	91001034 	orhi	r4,r18,64
   44124:	10bfffc4 	addi	r2,r2,-1
   44128:	2088703a 	and	r4,r4,r2
   4412c:	003fb506 	br	44004 <__alt_data_end+0xfffdcf04>
   44130:	00800044 	movi	r2,1
   44134:	10c7c83a 	sub	r3,r2,r3
   44138:	008006c4 	movi	r2,27
   4413c:	10ff7016 	blt	r2,r3,43f00 <__alt_data_end+0xfffdce00>
   44140:	00800804 	movi	r2,32
   44144:	10c5c83a 	sub	r2,r2,r3
   44148:	9884983a 	sll	r2,r19,r2
   4414c:	98c6d83a 	srl	r3,r19,r3
   44150:	1004c03a 	cmpne	r2,r2,zero
   44154:	1884b03a 	or	r2,r3,r2
   44158:	10c001cc 	andi	r3,r2,7
   4415c:	18000426 	beq	r3,zero,44170 <__mulsf3+0x3b0>
   44160:	10c003cc 	andi	r3,r2,15
   44164:	01000104 	movi	r4,4
   44168:	19000126 	beq	r3,r4,44170 <__mulsf3+0x3b0>
   4416c:	1105883a 	add	r2,r2,r4
   44170:	10c1002c 	andhi	r3,r2,1024
   44174:	18000626 	beq	r3,zero,44190 <__mulsf3+0x3d0>
   44178:	a829883a 	mov	r20,r21
   4417c:	00c00044 	movi	r3,1
   44180:	0009883a 	mov	r4,zero
   44184:	003f6106 	br	43f0c <__alt_data_end+0xfffdce0c>
   44188:	3821883a 	mov	r16,r7
   4418c:	003fc506 	br	440a4 <__alt_data_end+0xfffdcfa4>
   44190:	100491ba 	slli	r2,r2,6
   44194:	a829883a 	mov	r20,r21
   44198:	0007883a 	mov	r3,zero
   4419c:	1008d27a 	srli	r4,r2,9
   441a0:	003f5a06 	br	43f0c <__alt_data_end+0xfffdce0c>
   441a4:	00802034 	movhi	r2,128
   441a8:	99001034 	orhi	r4,r19,64
   441ac:	10bfffc4 	addi	r2,r2,-1
   441b0:	a829883a 	mov	r20,r21
   441b4:	2088703a 	and	r4,r4,r2
   441b8:	003f9206 	br	44004 <__alt_data_end+0xfffdcf04>

000441bc <__subsf3>:
   441bc:	defffc04 	addi	sp,sp,-16
   441c0:	280cd5fa 	srli	r6,r5,23
   441c4:	dc000015 	stw	r16,0(sp)
   441c8:	01c02034 	movhi	r7,128
   441cc:	2020d5fa 	srli	r16,r4,23
   441d0:	39ffffc4 	addi	r7,r7,-1
   441d4:	3906703a 	and	r3,r7,r4
   441d8:	dc400115 	stw	r17,4(sp)
   441dc:	394e703a 	and	r7,r7,r5
   441e0:	2022d7fa 	srli	r17,r4,31
   441e4:	dfc00315 	stw	ra,12(sp)
   441e8:	dc800215 	stw	r18,8(sp)
   441ec:	31803fcc 	andi	r6,r6,255
   441f0:	01003fc4 	movi	r4,255
   441f4:	84003fcc 	andi	r16,r16,255
   441f8:	180690fa 	slli	r3,r3,3
   441fc:	2804d7fa 	srli	r2,r5,31
   44200:	380e90fa 	slli	r7,r7,3
   44204:	31006d26 	beq	r6,r4,443bc <__subsf3+0x200>
   44208:	1080005c 	xori	r2,r2,1
   4420c:	8189c83a 	sub	r4,r16,r6
   44210:	14404f26 	beq	r2,r17,44350 <__subsf3+0x194>
   44214:	0100770e 	bge	zero,r4,443f4 <__subsf3+0x238>
   44218:	30001e1e 	bne	r6,zero,44294 <__subsf3+0xd8>
   4421c:	38006a1e 	bne	r7,zero,443c8 <__subsf3+0x20c>
   44220:	188001cc 	andi	r2,r3,7
   44224:	10000426 	beq	r2,zero,44238 <__subsf3+0x7c>
   44228:	188003cc 	andi	r2,r3,15
   4422c:	01000104 	movi	r4,4
   44230:	11000126 	beq	r2,r4,44238 <__subsf3+0x7c>
   44234:	1907883a 	add	r3,r3,r4
   44238:	1881002c 	andhi	r2,r3,1024
   4423c:	10003926 	beq	r2,zero,44324 <__subsf3+0x168>
   44240:	84000044 	addi	r16,r16,1
   44244:	00803fc4 	movi	r2,255
   44248:	80807526 	beq	r16,r2,44420 <__subsf3+0x264>
   4424c:	180691ba 	slli	r3,r3,6
   44250:	8880004c 	andi	r2,r17,1
   44254:	180ad27a 	srli	r5,r3,9
   44258:	84003fcc 	andi	r16,r16,255
   4425c:	800695fa 	slli	r3,r16,23
   44260:	10803fcc 	andi	r2,r2,255
   44264:	01002034 	movhi	r4,128
   44268:	213fffc4 	addi	r4,r4,-1
   4426c:	100497fa 	slli	r2,r2,31
   44270:	2920703a 	and	r16,r5,r4
   44274:	80e0b03a 	or	r16,r16,r3
   44278:	8084b03a 	or	r2,r16,r2
   4427c:	dfc00317 	ldw	ra,12(sp)
   44280:	dc800217 	ldw	r18,8(sp)
   44284:	dc400117 	ldw	r17,4(sp)
   44288:	dc000017 	ldw	r16,0(sp)
   4428c:	dec00404 	addi	sp,sp,16
   44290:	f800283a 	ret
   44294:	00803fc4 	movi	r2,255
   44298:	80bfe126 	beq	r16,r2,44220 <__alt_data_end+0xfffdd120>
   4429c:	39c10034 	orhi	r7,r7,1024
   442a0:	008006c4 	movi	r2,27
   442a4:	11007416 	blt	r2,r4,44478 <__subsf3+0x2bc>
   442a8:	00800804 	movi	r2,32
   442ac:	1105c83a 	sub	r2,r2,r4
   442b0:	3884983a 	sll	r2,r7,r2
   442b4:	390ed83a 	srl	r7,r7,r4
   442b8:	1008c03a 	cmpne	r4,r2,zero
   442bc:	390eb03a 	or	r7,r7,r4
   442c0:	19c7c83a 	sub	r3,r3,r7
   442c4:	1881002c 	andhi	r2,r3,1024
   442c8:	10001426 	beq	r2,zero,4431c <__subsf3+0x160>
   442cc:	04810034 	movhi	r18,1024
   442d0:	94bfffc4 	addi	r18,r18,-1
   442d4:	1ca4703a 	and	r18,r3,r18
   442d8:	9009883a 	mov	r4,r18
   442dc:	0046f540 	call	46f54 <__clzsi2>
   442e0:	10bffec4 	addi	r2,r2,-5
   442e4:	90a4983a 	sll	r18,r18,r2
   442e8:	14005116 	blt	r2,r16,44430 <__subsf3+0x274>
   442ec:	1405c83a 	sub	r2,r2,r16
   442f0:	10c00044 	addi	r3,r2,1
   442f4:	00800804 	movi	r2,32
   442f8:	10c5c83a 	sub	r2,r2,r3
   442fc:	9084983a 	sll	r2,r18,r2
   44300:	90e4d83a 	srl	r18,r18,r3
   44304:	0021883a 	mov	r16,zero
   44308:	1006c03a 	cmpne	r3,r2,zero
   4430c:	90c6b03a 	or	r3,r18,r3
   44310:	003fc306 	br	44220 <__alt_data_end+0xfffdd120>
   44314:	2000e026 	beq	r4,zero,44698 <__subsf3+0x4dc>
   44318:	2007883a 	mov	r3,r4
   4431c:	188001cc 	andi	r2,r3,7
   44320:	103fc11e 	bne	r2,zero,44228 <__alt_data_end+0xfffdd128>
   44324:	180ad0fa 	srli	r5,r3,3
   44328:	00c03fc4 	movi	r3,255
   4432c:	8880004c 	andi	r2,r17,1
   44330:	80c0031e 	bne	r16,r3,44340 <__subsf3+0x184>
   44334:	28006d26 	beq	r5,zero,444ec <__subsf3+0x330>
   44338:	29401034 	orhi	r5,r5,64
   4433c:	043fffc4 	movi	r16,-1
   44340:	00c02034 	movhi	r3,128
   44344:	18ffffc4 	addi	r3,r3,-1
   44348:	28ca703a 	and	r5,r5,r3
   4434c:	003fc206 	br	44258 <__alt_data_end+0xfffdd158>
   44350:	01003c0e 	bge	zero,r4,44444 <__subsf3+0x288>
   44354:	30002126 	beq	r6,zero,443dc <__subsf3+0x220>
   44358:	01403fc4 	movi	r5,255
   4435c:	817fb026 	beq	r16,r5,44220 <__alt_data_end+0xfffdd120>
   44360:	39c10034 	orhi	r7,r7,1024
   44364:	014006c4 	movi	r5,27
   44368:	29007416 	blt	r5,r4,4453c <__subsf3+0x380>
   4436c:	01400804 	movi	r5,32
   44370:	290bc83a 	sub	r5,r5,r4
   44374:	394a983a 	sll	r5,r7,r5
   44378:	390ed83a 	srl	r7,r7,r4
   4437c:	2808c03a 	cmpne	r4,r5,zero
   44380:	390eb03a 	or	r7,r7,r4
   44384:	19c7883a 	add	r3,r3,r7
   44388:	1901002c 	andhi	r4,r3,1024
   4438c:	20003826 	beq	r4,zero,44470 <__subsf3+0x2b4>
   44390:	84000044 	addi	r16,r16,1
   44394:	01003fc4 	movi	r4,255
   44398:	81005426 	beq	r16,r4,444ec <__subsf3+0x330>
   4439c:	1023883a 	mov	r17,r2
   443a0:	00bf0034 	movhi	r2,64512
   443a4:	10bfffc4 	addi	r2,r2,-1
   443a8:	1900004c 	andi	r4,r3,1
   443ac:	1886703a 	and	r3,r3,r2
   443b0:	1806d07a 	srli	r3,r3,1
   443b4:	1906b03a 	or	r3,r3,r4
   443b8:	003f9906 	br	44220 <__alt_data_end+0xfffdd120>
   443bc:	383f9226 	beq	r7,zero,44208 <__alt_data_end+0xfffdd108>
   443c0:	10803fcc 	andi	r2,r2,255
   443c4:	003f9106 	br	4420c <__alt_data_end+0xfffdd10c>
   443c8:	213fffc4 	addi	r4,r4,-1
   443cc:	203fbc26 	beq	r4,zero,442c0 <__alt_data_end+0xfffdd1c0>
   443d0:	00803fc4 	movi	r2,255
   443d4:	80bfb21e 	bne	r16,r2,442a0 <__alt_data_end+0xfffdd1a0>
   443d8:	003f9106 	br	44220 <__alt_data_end+0xfffdd120>
   443dc:	383f9026 	beq	r7,zero,44220 <__alt_data_end+0xfffdd120>
   443e0:	213fffc4 	addi	r4,r4,-1
   443e4:	203fe726 	beq	r4,zero,44384 <__alt_data_end+0xfffdd284>
   443e8:	01403fc4 	movi	r5,255
   443ec:	817fdd1e 	bne	r16,r5,44364 <__alt_data_end+0xfffdd264>
   443f0:	003f8b06 	br	44220 <__alt_data_end+0xfffdd120>
   443f4:	2000221e 	bne	r4,zero,44480 <__subsf3+0x2c4>
   443f8:	81000044 	addi	r4,r16,1
   443fc:	21003fcc 	andi	r4,r4,255
   44400:	01400044 	movi	r5,1
   44404:	2900470e 	bge	r5,r4,44524 <__subsf3+0x368>
   44408:	19e5c83a 	sub	r18,r3,r7
   4440c:	9141002c 	andhi	r5,r18,1024
   44410:	28002d26 	beq	r5,zero,444c8 <__subsf3+0x30c>
   44414:	38e5c83a 	sub	r18,r7,r3
   44418:	1023883a 	mov	r17,r2
   4441c:	003fae06 	br	442d8 <__alt_data_end+0xfffdd1d8>
   44420:	8880004c 	andi	r2,r17,1
   44424:	043fffc4 	movi	r16,-1
   44428:	000b883a 	mov	r5,zero
   4442c:	003f8a06 	br	44258 <__alt_data_end+0xfffdd158>
   44430:	00ff0034 	movhi	r3,64512
   44434:	18ffffc4 	addi	r3,r3,-1
   44438:	80a1c83a 	sub	r16,r16,r2
   4443c:	90c6703a 	and	r3,r18,r3
   44440:	003f7706 	br	44220 <__alt_data_end+0xfffdd120>
   44444:	2000431e 	bne	r4,zero,44554 <__subsf3+0x398>
   44448:	81000044 	addi	r4,r16,1
   4444c:	21803fcc 	andi	r6,r4,255
   44450:	01400044 	movi	r5,1
   44454:	2980280e 	bge	r5,r6,444f8 <__subsf3+0x33c>
   44458:	01403fc4 	movi	r5,255
   4445c:	21402326 	beq	r4,r5,444ec <__subsf3+0x330>
   44460:	19c7883a 	add	r3,r3,r7
   44464:	1806d07a 	srli	r3,r3,1
   44468:	2021883a 	mov	r16,r4
   4446c:	003f6c06 	br	44220 <__alt_data_end+0xfffdd120>
   44470:	1023883a 	mov	r17,r2
   44474:	003fa906 	br	4431c <__alt_data_end+0xfffdd21c>
   44478:	01c00044 	movi	r7,1
   4447c:	003f9006 	br	442c0 <__alt_data_end+0xfffdd1c0>
   44480:	8000151e 	bne	r16,zero,444d8 <__subsf3+0x31c>
   44484:	18002f26 	beq	r3,zero,44544 <__subsf3+0x388>
   44488:	0108303a 	nor	r4,zero,r4
   4448c:	20000a26 	beq	r4,zero,444b8 <__subsf3+0x2fc>
   44490:	01403fc4 	movi	r5,255
   44494:	31402b26 	beq	r6,r5,44544 <__subsf3+0x388>
   44498:	014006c4 	movi	r5,27
   4449c:	29006e16 	blt	r5,r4,44658 <__subsf3+0x49c>
   444a0:	01400804 	movi	r5,32
   444a4:	290bc83a 	sub	r5,r5,r4
   444a8:	194a983a 	sll	r5,r3,r5
   444ac:	1908d83a 	srl	r4,r3,r4
   444b0:	2806c03a 	cmpne	r3,r5,zero
   444b4:	20c6b03a 	or	r3,r4,r3
   444b8:	38c7c83a 	sub	r3,r7,r3
   444bc:	3021883a 	mov	r16,r6
   444c0:	1023883a 	mov	r17,r2
   444c4:	003f7f06 	br	442c4 <__alt_data_end+0xfffdd1c4>
   444c8:	903f831e 	bne	r18,zero,442d8 <__alt_data_end+0xfffdd1d8>
   444cc:	0005883a 	mov	r2,zero
   444d0:	0021883a 	mov	r16,zero
   444d4:	003f9a06 	br	44340 <__alt_data_end+0xfffdd240>
   444d8:	01403fc4 	movi	r5,255
   444dc:	31401926 	beq	r6,r5,44544 <__subsf3+0x388>
   444e0:	0109c83a 	sub	r4,zero,r4
   444e4:	18c10034 	orhi	r3,r3,1024
   444e8:	003feb06 	br	44498 <__alt_data_end+0xfffdd398>
   444ec:	043fffc4 	movi	r16,-1
   444f0:	000b883a 	mov	r5,zero
   444f4:	003f5806 	br	44258 <__alt_data_end+0xfffdd158>
   444f8:	8000481e 	bne	r16,zero,4461c <__subsf3+0x460>
   444fc:	18006226 	beq	r3,zero,44688 <__subsf3+0x4cc>
   44500:	383f4726 	beq	r7,zero,44220 <__alt_data_end+0xfffdd120>
   44504:	19c7883a 	add	r3,r3,r7
   44508:	1881002c 	andhi	r2,r3,1024
   4450c:	103f8326 	beq	r2,zero,4431c <__alt_data_end+0xfffdd21c>
   44510:	00bf0034 	movhi	r2,64512
   44514:	10bfffc4 	addi	r2,r2,-1
   44518:	2821883a 	mov	r16,r5
   4451c:	1886703a 	and	r3,r3,r2
   44520:	003f3f06 	br	44220 <__alt_data_end+0xfffdd120>
   44524:	80001c1e 	bne	r16,zero,44598 <__subsf3+0x3dc>
   44528:	1800261e 	bne	r3,zero,445c4 <__subsf3+0x408>
   4452c:	38004c26 	beq	r7,zero,44660 <__subsf3+0x4a4>
   44530:	3807883a 	mov	r3,r7
   44534:	1023883a 	mov	r17,r2
   44538:	003f3906 	br	44220 <__alt_data_end+0xfffdd120>
   4453c:	01c00044 	movi	r7,1
   44540:	003f9006 	br	44384 <__alt_data_end+0xfffdd284>
   44544:	3807883a 	mov	r3,r7
   44548:	3021883a 	mov	r16,r6
   4454c:	1023883a 	mov	r17,r2
   44550:	003f3306 	br	44220 <__alt_data_end+0xfffdd120>
   44554:	8000161e 	bne	r16,zero,445b0 <__subsf3+0x3f4>
   44558:	18002d26 	beq	r3,zero,44610 <__subsf3+0x454>
   4455c:	0108303a 	nor	r4,zero,r4
   44560:	20000a26 	beq	r4,zero,4458c <__subsf3+0x3d0>
   44564:	01403fc4 	movi	r5,255
   44568:	31402926 	beq	r6,r5,44610 <__subsf3+0x454>
   4456c:	014006c4 	movi	r5,27
   44570:	29004716 	blt	r5,r4,44690 <__subsf3+0x4d4>
   44574:	01400804 	movi	r5,32
   44578:	290bc83a 	sub	r5,r5,r4
   4457c:	194a983a 	sll	r5,r3,r5
   44580:	1908d83a 	srl	r4,r3,r4
   44584:	2806c03a 	cmpne	r3,r5,zero
   44588:	20c6b03a 	or	r3,r4,r3
   4458c:	19c7883a 	add	r3,r3,r7
   44590:	3021883a 	mov	r16,r6
   44594:	003f7c06 	br	44388 <__alt_data_end+0xfffdd288>
   44598:	1800111e 	bne	r3,zero,445e0 <__subsf3+0x424>
   4459c:	38003326 	beq	r7,zero,4466c <__subsf3+0x4b0>
   445a0:	3807883a 	mov	r3,r7
   445a4:	1023883a 	mov	r17,r2
   445a8:	04003fc4 	movi	r16,255
   445ac:	003f1c06 	br	44220 <__alt_data_end+0xfffdd120>
   445b0:	01403fc4 	movi	r5,255
   445b4:	31401626 	beq	r6,r5,44610 <__subsf3+0x454>
   445b8:	0109c83a 	sub	r4,zero,r4
   445bc:	18c10034 	orhi	r3,r3,1024
   445c0:	003fea06 	br	4456c <__alt_data_end+0xfffdd46c>
   445c4:	383f1626 	beq	r7,zero,44220 <__alt_data_end+0xfffdd120>
   445c8:	19c9c83a 	sub	r4,r3,r7
   445cc:	2141002c 	andhi	r5,r4,1024
   445d0:	283f5026 	beq	r5,zero,44314 <__alt_data_end+0xfffdd214>
   445d4:	38c7c83a 	sub	r3,r7,r3
   445d8:	1023883a 	mov	r17,r2
   445dc:	003f1006 	br	44220 <__alt_data_end+0xfffdd120>
   445e0:	38001b26 	beq	r7,zero,44650 <__subsf3+0x494>
   445e4:	1806d0fa 	srli	r3,r3,3
   445e8:	1900102c 	andhi	r4,r3,64
   445ec:	20000526 	beq	r4,zero,44604 <__subsf3+0x448>
   445f0:	380ed0fa 	srli	r7,r7,3
   445f4:	3900102c 	andhi	r4,r7,64
   445f8:	2000021e 	bne	r4,zero,44604 <__subsf3+0x448>
   445fc:	3807883a 	mov	r3,r7
   44600:	1023883a 	mov	r17,r2
   44604:	180690fa 	slli	r3,r3,3
   44608:	04003fc4 	movi	r16,255
   4460c:	003f0406 	br	44220 <__alt_data_end+0xfffdd120>
   44610:	3807883a 	mov	r3,r7
   44614:	3021883a 	mov	r16,r6
   44618:	003f0106 	br	44220 <__alt_data_end+0xfffdd120>
   4461c:	18001726 	beq	r3,zero,4467c <__subsf3+0x4c0>
   44620:	38000b26 	beq	r7,zero,44650 <__subsf3+0x494>
   44624:	1806d0fa 	srli	r3,r3,3
   44628:	1900102c 	andhi	r4,r3,64
   4462c:	20000426 	beq	r4,zero,44640 <__subsf3+0x484>
   44630:	380ed0fa 	srli	r7,r7,3
   44634:	3900102c 	andhi	r4,r7,64
   44638:	2000011e 	bne	r4,zero,44640 <__subsf3+0x484>
   4463c:	3807883a 	mov	r3,r7
   44640:	180690fa 	slli	r3,r3,3
   44644:	1023883a 	mov	r17,r2
   44648:	04003fc4 	movi	r16,255
   4464c:	003ef406 	br	44220 <__alt_data_end+0xfffdd120>
   44650:	04003fc4 	movi	r16,255
   44654:	003ef206 	br	44220 <__alt_data_end+0xfffdd120>
   44658:	00c00044 	movi	r3,1
   4465c:	003f9606 	br	444b8 <__alt_data_end+0xfffdd3b8>
   44660:	000b883a 	mov	r5,zero
   44664:	0005883a 	mov	r2,zero
   44668:	003f3506 	br	44340 <__alt_data_end+0xfffdd240>
   4466c:	01402034 	movhi	r5,128
   44670:	297fffc4 	addi	r5,r5,-1
   44674:	0005883a 	mov	r2,zero
   44678:	003f2f06 	br	44338 <__alt_data_end+0xfffdd238>
   4467c:	3807883a 	mov	r3,r7
   44680:	04003fc4 	movi	r16,255
   44684:	003ee606 	br	44220 <__alt_data_end+0xfffdd120>
   44688:	3807883a 	mov	r3,r7
   4468c:	003ee406 	br	44220 <__alt_data_end+0xfffdd120>
   44690:	00c00044 	movi	r3,1
   44694:	003fbd06 	br	4458c <__alt_data_end+0xfffdd48c>
   44698:	0005883a 	mov	r2,zero
   4469c:	003f2806 	br	44340 <__alt_data_end+0xfffdd240>

000446a0 <__fixsfsi>:
   446a0:	200ad5fa 	srli	r5,r4,23
   446a4:	00c02034 	movhi	r3,128
   446a8:	18ffffc4 	addi	r3,r3,-1
   446ac:	29403fcc 	andi	r5,r5,255
   446b0:	00801f84 	movi	r2,126
   446b4:	1906703a 	and	r3,r3,r4
   446b8:	2008d7fa 	srli	r4,r4,31
   446bc:	11400e0e 	bge	r2,r5,446f8 <__fixsfsi+0x58>
   446c0:	00802744 	movi	r2,157
   446c4:	11400816 	blt	r2,r5,446e8 <__fixsfsi+0x48>
   446c8:	00802544 	movi	r2,149
   446cc:	18c02034 	orhi	r3,r3,128
   446d0:	11400b0e 	bge	r2,r5,44700 <__fixsfsi+0x60>
   446d4:	28bfda84 	addi	r2,r5,-150
   446d8:	1884983a 	sll	r2,r3,r2
   446dc:	20000726 	beq	r4,zero,446fc <__fixsfsi+0x5c>
   446e0:	0085c83a 	sub	r2,zero,r2
   446e4:	f800283a 	ret
   446e8:	00a00034 	movhi	r2,32768
   446ec:	10bfffc4 	addi	r2,r2,-1
   446f0:	2085883a 	add	r2,r4,r2
   446f4:	f800283a 	ret
   446f8:	0005883a 	mov	r2,zero
   446fc:	f800283a 	ret
   44700:	00802584 	movi	r2,150
   44704:	1145c83a 	sub	r2,r2,r5
   44708:	1884d83a 	srl	r2,r3,r2
   4470c:	003ff306 	br	446dc <__alt_data_end+0xfffdd5dc>

00044710 <__floatsisf>:
   44710:	defffd04 	addi	sp,sp,-12
   44714:	dfc00215 	stw	ra,8(sp)
   44718:	dc400115 	stw	r17,4(sp)
   4471c:	dc000015 	stw	r16,0(sp)
   44720:	20003526 	beq	r4,zero,447f8 <__floatsisf+0xe8>
   44724:	2021883a 	mov	r16,r4
   44728:	2022d7fa 	srli	r17,r4,31
   4472c:	20003616 	blt	r4,zero,44808 <__floatsisf+0xf8>
   44730:	8009883a 	mov	r4,r16
   44734:	0046f540 	call	46f54 <__clzsi2>
   44738:	00c02784 	movi	r3,158
   4473c:	1887c83a 	sub	r3,r3,r2
   44740:	01002584 	movi	r4,150
   44744:	20c01416 	blt	r4,r3,44798 <__floatsisf+0x88>
   44748:	20c9c83a 	sub	r4,r4,r3
   4474c:	8120983a 	sll	r16,r16,r4
   44750:	00802034 	movhi	r2,128
   44754:	10bfffc4 	addi	r2,r2,-1
   44758:	8809883a 	mov	r4,r17
   4475c:	80a0703a 	and	r16,r16,r2
   44760:	18803fcc 	andi	r2,r3,255
   44764:	100695fa 	slli	r3,r2,23
   44768:	20803fcc 	andi	r2,r4,255
   4476c:	100897fa 	slli	r4,r2,31
   44770:	00802034 	movhi	r2,128
   44774:	10bfffc4 	addi	r2,r2,-1
   44778:	8084703a 	and	r2,r16,r2
   4477c:	10c4b03a 	or	r2,r2,r3
   44780:	1104b03a 	or	r2,r2,r4
   44784:	dfc00217 	ldw	ra,8(sp)
   44788:	dc400117 	ldw	r17,4(sp)
   4478c:	dc000017 	ldw	r16,0(sp)
   44790:	dec00304 	addi	sp,sp,12
   44794:	f800283a 	ret
   44798:	01002644 	movi	r4,153
   4479c:	20c01c16 	blt	r4,r3,44810 <__floatsisf+0x100>
   447a0:	20c9c83a 	sub	r4,r4,r3
   447a4:	8120983a 	sll	r16,r16,r4
   447a8:	013f0034 	movhi	r4,64512
   447ac:	213fffc4 	addi	r4,r4,-1
   447b0:	814001cc 	andi	r5,r16,7
   447b4:	8108703a 	and	r4,r16,r4
   447b8:	28000426 	beq	r5,zero,447cc <__floatsisf+0xbc>
   447bc:	840003cc 	andi	r16,r16,15
   447c0:	01400104 	movi	r5,4
   447c4:	81400126 	beq	r16,r5,447cc <__floatsisf+0xbc>
   447c8:	2149883a 	add	r4,r4,r5
   447cc:	2141002c 	andhi	r5,r4,1024
   447d0:	28000526 	beq	r5,zero,447e8 <__floatsisf+0xd8>
   447d4:	00c027c4 	movi	r3,159
   447d8:	1887c83a 	sub	r3,r3,r2
   447dc:	00bf0034 	movhi	r2,64512
   447e0:	10bfffc4 	addi	r2,r2,-1
   447e4:	2088703a 	and	r4,r4,r2
   447e8:	202091ba 	slli	r16,r4,6
   447ec:	8809883a 	mov	r4,r17
   447f0:	8020d27a 	srli	r16,r16,9
   447f4:	003fda06 	br	44760 <__alt_data_end+0xfffdd660>
   447f8:	0009883a 	mov	r4,zero
   447fc:	0007883a 	mov	r3,zero
   44800:	0021883a 	mov	r16,zero
   44804:	003fd606 	br	44760 <__alt_data_end+0xfffdd660>
   44808:	0121c83a 	sub	r16,zero,r4
   4480c:	003fc806 	br	44730 <__alt_data_end+0xfffdd630>
   44810:	01002e44 	movi	r4,185
   44814:	20c9c83a 	sub	r4,r4,r3
   44818:	01400144 	movi	r5,5
   4481c:	8108983a 	sll	r4,r16,r4
   44820:	288bc83a 	sub	r5,r5,r2
   44824:	8160d83a 	srl	r16,r16,r5
   44828:	2008c03a 	cmpne	r4,r4,zero
   4482c:	8120b03a 	or	r16,r16,r4
   44830:	003fdd06 	br	447a8 <__alt_data_end+0xfffdd6a8>

00044834 <__adddf3>:
   44834:	02c00434 	movhi	r11,16
   44838:	5affffc4 	addi	r11,r11,-1
   4483c:	2806d7fa 	srli	r3,r5,31
   44840:	2ad4703a 	and	r10,r5,r11
   44844:	3ad2703a 	and	r9,r7,r11
   44848:	3804d53a 	srli	r2,r7,20
   4484c:	3018d77a 	srli	r12,r6,29
   44850:	280ad53a 	srli	r5,r5,20
   44854:	501490fa 	slli	r10,r10,3
   44858:	2010d77a 	srli	r8,r4,29
   4485c:	481290fa 	slli	r9,r9,3
   44860:	380ed7fa 	srli	r7,r7,31
   44864:	defffb04 	addi	sp,sp,-20
   44868:	dc800215 	stw	r18,8(sp)
   4486c:	dc400115 	stw	r17,4(sp)
   44870:	dc000015 	stw	r16,0(sp)
   44874:	dfc00415 	stw	ra,16(sp)
   44878:	dcc00315 	stw	r19,12(sp)
   4487c:	1c803fcc 	andi	r18,r3,255
   44880:	2c01ffcc 	andi	r16,r5,2047
   44884:	5210b03a 	or	r8,r10,r8
   44888:	202290fa 	slli	r17,r4,3
   4488c:	1081ffcc 	andi	r2,r2,2047
   44890:	4b12b03a 	or	r9,r9,r12
   44894:	300c90fa 	slli	r6,r6,3
   44898:	91c07526 	beq	r18,r7,44a70 <__adddf3+0x23c>
   4489c:	8087c83a 	sub	r3,r16,r2
   448a0:	00c0ab0e 	bge	zero,r3,44b50 <__adddf3+0x31c>
   448a4:	10002a1e 	bne	r2,zero,44950 <__adddf3+0x11c>
   448a8:	4984b03a 	or	r2,r9,r6
   448ac:	1000961e 	bne	r2,zero,44b08 <__adddf3+0x2d4>
   448b0:	888001cc 	andi	r2,r17,7
   448b4:	10000726 	beq	r2,zero,448d4 <__adddf3+0xa0>
   448b8:	888003cc 	andi	r2,r17,15
   448bc:	00c00104 	movi	r3,4
   448c0:	10c00426 	beq	r2,r3,448d4 <__adddf3+0xa0>
   448c4:	88c7883a 	add	r3,r17,r3
   448c8:	1c63803a 	cmpltu	r17,r3,r17
   448cc:	4451883a 	add	r8,r8,r17
   448d0:	1823883a 	mov	r17,r3
   448d4:	4080202c 	andhi	r2,r8,128
   448d8:	10005926 	beq	r2,zero,44a40 <__adddf3+0x20c>
   448dc:	84000044 	addi	r16,r16,1
   448e0:	0081ffc4 	movi	r2,2047
   448e4:	8080ba26 	beq	r16,r2,44bd0 <__adddf3+0x39c>
   448e8:	00bfe034 	movhi	r2,65408
   448ec:	10bfffc4 	addi	r2,r2,-1
   448f0:	4090703a 	and	r8,r8,r2
   448f4:	4004977a 	slli	r2,r8,29
   448f8:	4010927a 	slli	r8,r8,9
   448fc:	8822d0fa 	srli	r17,r17,3
   44900:	8401ffcc 	andi	r16,r16,2047
   44904:	4010d33a 	srli	r8,r8,12
   44908:	9007883a 	mov	r3,r18
   4490c:	1444b03a 	or	r2,r2,r17
   44910:	8401ffcc 	andi	r16,r16,2047
   44914:	8020953a 	slli	r16,r16,20
   44918:	18c03fcc 	andi	r3,r3,255
   4491c:	01000434 	movhi	r4,16
   44920:	213fffc4 	addi	r4,r4,-1
   44924:	180697fa 	slli	r3,r3,31
   44928:	4110703a 	and	r8,r8,r4
   4492c:	4410b03a 	or	r8,r8,r16
   44930:	40c6b03a 	or	r3,r8,r3
   44934:	dfc00417 	ldw	ra,16(sp)
   44938:	dcc00317 	ldw	r19,12(sp)
   4493c:	dc800217 	ldw	r18,8(sp)
   44940:	dc400117 	ldw	r17,4(sp)
   44944:	dc000017 	ldw	r16,0(sp)
   44948:	dec00504 	addi	sp,sp,20
   4494c:	f800283a 	ret
   44950:	0081ffc4 	movi	r2,2047
   44954:	80bfd626 	beq	r16,r2,448b0 <__alt_data_end+0xfffdd7b0>
   44958:	4a402034 	orhi	r9,r9,128
   4495c:	00800e04 	movi	r2,56
   44960:	10c09f16 	blt	r2,r3,44be0 <__adddf3+0x3ac>
   44964:	008007c4 	movi	r2,31
   44968:	10c0c216 	blt	r2,r3,44c74 <__adddf3+0x440>
   4496c:	00800804 	movi	r2,32
   44970:	10c5c83a 	sub	r2,r2,r3
   44974:	488a983a 	sll	r5,r9,r2
   44978:	30c8d83a 	srl	r4,r6,r3
   4497c:	3084983a 	sll	r2,r6,r2
   44980:	48c6d83a 	srl	r3,r9,r3
   44984:	290cb03a 	or	r6,r5,r4
   44988:	1004c03a 	cmpne	r2,r2,zero
   4498c:	308cb03a 	or	r6,r6,r2
   44990:	898dc83a 	sub	r6,r17,r6
   44994:	89a3803a 	cmpltu	r17,r17,r6
   44998:	40d1c83a 	sub	r8,r8,r3
   4499c:	4451c83a 	sub	r8,r8,r17
   449a0:	3023883a 	mov	r17,r6
   449a4:	4080202c 	andhi	r2,r8,128
   449a8:	10002326 	beq	r2,zero,44a38 <__adddf3+0x204>
   449ac:	04c02034 	movhi	r19,128
   449b0:	9cffffc4 	addi	r19,r19,-1
   449b4:	44e6703a 	and	r19,r8,r19
   449b8:	98007626 	beq	r19,zero,44b94 <__adddf3+0x360>
   449bc:	9809883a 	mov	r4,r19
   449c0:	0046f540 	call	46f54 <__clzsi2>
   449c4:	10fffe04 	addi	r3,r2,-8
   449c8:	010007c4 	movi	r4,31
   449cc:	20c07716 	blt	r4,r3,44bac <__adddf3+0x378>
   449d0:	00800804 	movi	r2,32
   449d4:	10c5c83a 	sub	r2,r2,r3
   449d8:	8884d83a 	srl	r2,r17,r2
   449dc:	98d0983a 	sll	r8,r19,r3
   449e0:	88e2983a 	sll	r17,r17,r3
   449e4:	1204b03a 	or	r2,r2,r8
   449e8:	1c007416 	blt	r3,r16,44bbc <__adddf3+0x388>
   449ec:	1c21c83a 	sub	r16,r3,r16
   449f0:	82000044 	addi	r8,r16,1
   449f4:	00c007c4 	movi	r3,31
   449f8:	1a009116 	blt	r3,r8,44c40 <__adddf3+0x40c>
   449fc:	00c00804 	movi	r3,32
   44a00:	1a07c83a 	sub	r3,r3,r8
   44a04:	8a08d83a 	srl	r4,r17,r8
   44a08:	88e2983a 	sll	r17,r17,r3
   44a0c:	10c6983a 	sll	r3,r2,r3
   44a10:	1210d83a 	srl	r8,r2,r8
   44a14:	8804c03a 	cmpne	r2,r17,zero
   44a18:	1906b03a 	or	r3,r3,r4
   44a1c:	18a2b03a 	or	r17,r3,r2
   44a20:	0021883a 	mov	r16,zero
   44a24:	003fa206 	br	448b0 <__alt_data_end+0xfffdd7b0>
   44a28:	1890b03a 	or	r8,r3,r2
   44a2c:	40017d26 	beq	r8,zero,45024 <__adddf3+0x7f0>
   44a30:	1011883a 	mov	r8,r2
   44a34:	1823883a 	mov	r17,r3
   44a38:	888001cc 	andi	r2,r17,7
   44a3c:	103f9e1e 	bne	r2,zero,448b8 <__alt_data_end+0xfffdd7b8>
   44a40:	4004977a 	slli	r2,r8,29
   44a44:	8822d0fa 	srli	r17,r17,3
   44a48:	4010d0fa 	srli	r8,r8,3
   44a4c:	9007883a 	mov	r3,r18
   44a50:	1444b03a 	or	r2,r2,r17
   44a54:	0101ffc4 	movi	r4,2047
   44a58:	81002426 	beq	r16,r4,44aec <__adddf3+0x2b8>
   44a5c:	8120703a 	and	r16,r16,r4
   44a60:	01000434 	movhi	r4,16
   44a64:	213fffc4 	addi	r4,r4,-1
   44a68:	4110703a 	and	r8,r8,r4
   44a6c:	003fa806 	br	44910 <__alt_data_end+0xfffdd810>
   44a70:	8089c83a 	sub	r4,r16,r2
   44a74:	01005e0e 	bge	zero,r4,44bf0 <__adddf3+0x3bc>
   44a78:	10002b26 	beq	r2,zero,44b28 <__adddf3+0x2f4>
   44a7c:	0081ffc4 	movi	r2,2047
   44a80:	80bf8b26 	beq	r16,r2,448b0 <__alt_data_end+0xfffdd7b0>
   44a84:	4a402034 	orhi	r9,r9,128
   44a88:	00800e04 	movi	r2,56
   44a8c:	1100a40e 	bge	r2,r4,44d20 <__adddf3+0x4ec>
   44a90:	498cb03a 	or	r6,r9,r6
   44a94:	300ac03a 	cmpne	r5,r6,zero
   44a98:	0013883a 	mov	r9,zero
   44a9c:	2c4b883a 	add	r5,r5,r17
   44aa0:	2c63803a 	cmpltu	r17,r5,r17
   44aa4:	4a11883a 	add	r8,r9,r8
   44aa8:	8a11883a 	add	r8,r17,r8
   44aac:	2823883a 	mov	r17,r5
   44ab0:	4080202c 	andhi	r2,r8,128
   44ab4:	103fe026 	beq	r2,zero,44a38 <__alt_data_end+0xfffdd938>
   44ab8:	84000044 	addi	r16,r16,1
   44abc:	0081ffc4 	movi	r2,2047
   44ac0:	8080d226 	beq	r16,r2,44e0c <__adddf3+0x5d8>
   44ac4:	00bfe034 	movhi	r2,65408
   44ac8:	10bfffc4 	addi	r2,r2,-1
   44acc:	4090703a 	and	r8,r8,r2
   44ad0:	880ad07a 	srli	r5,r17,1
   44ad4:	400897fa 	slli	r4,r8,31
   44ad8:	88c0004c 	andi	r3,r17,1
   44adc:	28e2b03a 	or	r17,r5,r3
   44ae0:	4010d07a 	srli	r8,r8,1
   44ae4:	2462b03a 	or	r17,r4,r17
   44ae8:	003f7106 	br	448b0 <__alt_data_end+0xfffdd7b0>
   44aec:	4088b03a 	or	r4,r8,r2
   44af0:	20014526 	beq	r4,zero,45008 <__adddf3+0x7d4>
   44af4:	01000434 	movhi	r4,16
   44af8:	42000234 	orhi	r8,r8,8
   44afc:	213fffc4 	addi	r4,r4,-1
   44b00:	4110703a 	and	r8,r8,r4
   44b04:	003f8206 	br	44910 <__alt_data_end+0xfffdd810>
   44b08:	18ffffc4 	addi	r3,r3,-1
   44b0c:	1800491e 	bne	r3,zero,44c34 <__adddf3+0x400>
   44b10:	898bc83a 	sub	r5,r17,r6
   44b14:	8963803a 	cmpltu	r17,r17,r5
   44b18:	4251c83a 	sub	r8,r8,r9
   44b1c:	4451c83a 	sub	r8,r8,r17
   44b20:	2823883a 	mov	r17,r5
   44b24:	003f9f06 	br	449a4 <__alt_data_end+0xfffdd8a4>
   44b28:	4984b03a 	or	r2,r9,r6
   44b2c:	103f6026 	beq	r2,zero,448b0 <__alt_data_end+0xfffdd7b0>
   44b30:	213fffc4 	addi	r4,r4,-1
   44b34:	2000931e 	bne	r4,zero,44d84 <__adddf3+0x550>
   44b38:	898d883a 	add	r6,r17,r6
   44b3c:	3463803a 	cmpltu	r17,r6,r17
   44b40:	4251883a 	add	r8,r8,r9
   44b44:	8a11883a 	add	r8,r17,r8
   44b48:	3023883a 	mov	r17,r6
   44b4c:	003fd806 	br	44ab0 <__alt_data_end+0xfffdd9b0>
   44b50:	1800541e 	bne	r3,zero,44ca4 <__adddf3+0x470>
   44b54:	80800044 	addi	r2,r16,1
   44b58:	1081ffcc 	andi	r2,r2,2047
   44b5c:	00c00044 	movi	r3,1
   44b60:	1880a00e 	bge	r3,r2,44de4 <__adddf3+0x5b0>
   44b64:	8989c83a 	sub	r4,r17,r6
   44b68:	8905803a 	cmpltu	r2,r17,r4
   44b6c:	4267c83a 	sub	r19,r8,r9
   44b70:	98a7c83a 	sub	r19,r19,r2
   44b74:	9880202c 	andhi	r2,r19,128
   44b78:	10006326 	beq	r2,zero,44d08 <__adddf3+0x4d4>
   44b7c:	3463c83a 	sub	r17,r6,r17
   44b80:	4a07c83a 	sub	r3,r9,r8
   44b84:	344d803a 	cmpltu	r6,r6,r17
   44b88:	19a7c83a 	sub	r19,r3,r6
   44b8c:	3825883a 	mov	r18,r7
   44b90:	983f8a1e 	bne	r19,zero,449bc <__alt_data_end+0xfffdd8bc>
   44b94:	8809883a 	mov	r4,r17
   44b98:	0046f540 	call	46f54 <__clzsi2>
   44b9c:	10800804 	addi	r2,r2,32
   44ba0:	10fffe04 	addi	r3,r2,-8
   44ba4:	010007c4 	movi	r4,31
   44ba8:	20ff890e 	bge	r4,r3,449d0 <__alt_data_end+0xfffdd8d0>
   44bac:	10bff604 	addi	r2,r2,-40
   44bb0:	8884983a 	sll	r2,r17,r2
   44bb4:	0023883a 	mov	r17,zero
   44bb8:	1c3f8c0e 	bge	r3,r16,449ec <__alt_data_end+0xfffdd8ec>
   44bbc:	023fe034 	movhi	r8,65408
   44bc0:	423fffc4 	addi	r8,r8,-1
   44bc4:	80e1c83a 	sub	r16,r16,r3
   44bc8:	1210703a 	and	r8,r2,r8
   44bcc:	003f3806 	br	448b0 <__alt_data_end+0xfffdd7b0>
   44bd0:	9007883a 	mov	r3,r18
   44bd4:	0011883a 	mov	r8,zero
   44bd8:	0005883a 	mov	r2,zero
   44bdc:	003f4c06 	br	44910 <__alt_data_end+0xfffdd810>
   44be0:	498cb03a 	or	r6,r9,r6
   44be4:	300cc03a 	cmpne	r6,r6,zero
   44be8:	0007883a 	mov	r3,zero
   44bec:	003f6806 	br	44990 <__alt_data_end+0xfffdd890>
   44bf0:	20009c1e 	bne	r4,zero,44e64 <__adddf3+0x630>
   44bf4:	80800044 	addi	r2,r16,1
   44bf8:	1141ffcc 	andi	r5,r2,2047
   44bfc:	01000044 	movi	r4,1
   44c00:	2140670e 	bge	r4,r5,44da0 <__adddf3+0x56c>
   44c04:	0101ffc4 	movi	r4,2047
   44c08:	11007f26 	beq	r2,r4,44e08 <__adddf3+0x5d4>
   44c0c:	898d883a 	add	r6,r17,r6
   44c10:	4247883a 	add	r3,r8,r9
   44c14:	3451803a 	cmpltu	r8,r6,r17
   44c18:	40d1883a 	add	r8,r8,r3
   44c1c:	402297fa 	slli	r17,r8,31
   44c20:	300cd07a 	srli	r6,r6,1
   44c24:	4010d07a 	srli	r8,r8,1
   44c28:	1021883a 	mov	r16,r2
   44c2c:	89a2b03a 	or	r17,r17,r6
   44c30:	003f1f06 	br	448b0 <__alt_data_end+0xfffdd7b0>
   44c34:	0081ffc4 	movi	r2,2047
   44c38:	80bf481e 	bne	r16,r2,4495c <__alt_data_end+0xfffdd85c>
   44c3c:	003f1c06 	br	448b0 <__alt_data_end+0xfffdd7b0>
   44c40:	843ff844 	addi	r16,r16,-31
   44c44:	01000804 	movi	r4,32
   44c48:	1406d83a 	srl	r3,r2,r16
   44c4c:	41005026 	beq	r8,r4,44d90 <__adddf3+0x55c>
   44c50:	01001004 	movi	r4,64
   44c54:	2211c83a 	sub	r8,r4,r8
   44c58:	1204983a 	sll	r2,r2,r8
   44c5c:	88a2b03a 	or	r17,r17,r2
   44c60:	8822c03a 	cmpne	r17,r17,zero
   44c64:	1c62b03a 	or	r17,r3,r17
   44c68:	0011883a 	mov	r8,zero
   44c6c:	0021883a 	mov	r16,zero
   44c70:	003f7106 	br	44a38 <__alt_data_end+0xfffdd938>
   44c74:	193ff804 	addi	r4,r3,-32
   44c78:	00800804 	movi	r2,32
   44c7c:	4908d83a 	srl	r4,r9,r4
   44c80:	18804526 	beq	r3,r2,44d98 <__adddf3+0x564>
   44c84:	00801004 	movi	r2,64
   44c88:	10c5c83a 	sub	r2,r2,r3
   44c8c:	4886983a 	sll	r3,r9,r2
   44c90:	198cb03a 	or	r6,r3,r6
   44c94:	300cc03a 	cmpne	r6,r6,zero
   44c98:	218cb03a 	or	r6,r4,r6
   44c9c:	0007883a 	mov	r3,zero
   44ca0:	003f3b06 	br	44990 <__alt_data_end+0xfffdd890>
   44ca4:	80002a26 	beq	r16,zero,44d50 <__adddf3+0x51c>
   44ca8:	0101ffc4 	movi	r4,2047
   44cac:	11006826 	beq	r2,r4,44e50 <__adddf3+0x61c>
   44cb0:	00c7c83a 	sub	r3,zero,r3
   44cb4:	42002034 	orhi	r8,r8,128
   44cb8:	01000e04 	movi	r4,56
   44cbc:	20c07c16 	blt	r4,r3,44eb0 <__adddf3+0x67c>
   44cc0:	010007c4 	movi	r4,31
   44cc4:	20c0da16 	blt	r4,r3,45030 <__adddf3+0x7fc>
   44cc8:	01000804 	movi	r4,32
   44ccc:	20c9c83a 	sub	r4,r4,r3
   44cd0:	4114983a 	sll	r10,r8,r4
   44cd4:	88cad83a 	srl	r5,r17,r3
   44cd8:	8908983a 	sll	r4,r17,r4
   44cdc:	40c6d83a 	srl	r3,r8,r3
   44ce0:	5162b03a 	or	r17,r10,r5
   44ce4:	2008c03a 	cmpne	r4,r4,zero
   44ce8:	8922b03a 	or	r17,r17,r4
   44cec:	3463c83a 	sub	r17,r6,r17
   44cf0:	48c7c83a 	sub	r3,r9,r3
   44cf4:	344d803a 	cmpltu	r6,r6,r17
   44cf8:	1991c83a 	sub	r8,r3,r6
   44cfc:	1021883a 	mov	r16,r2
   44d00:	3825883a 	mov	r18,r7
   44d04:	003f2706 	br	449a4 <__alt_data_end+0xfffdd8a4>
   44d08:	24d0b03a 	or	r8,r4,r19
   44d0c:	40001b1e 	bne	r8,zero,44d7c <__adddf3+0x548>
   44d10:	0005883a 	mov	r2,zero
   44d14:	0007883a 	mov	r3,zero
   44d18:	0021883a 	mov	r16,zero
   44d1c:	003f4d06 	br	44a54 <__alt_data_end+0xfffdd954>
   44d20:	008007c4 	movi	r2,31
   44d24:	11003c16 	blt	r2,r4,44e18 <__adddf3+0x5e4>
   44d28:	00800804 	movi	r2,32
   44d2c:	1105c83a 	sub	r2,r2,r4
   44d30:	488e983a 	sll	r7,r9,r2
   44d34:	310ad83a 	srl	r5,r6,r4
   44d38:	3084983a 	sll	r2,r6,r2
   44d3c:	4912d83a 	srl	r9,r9,r4
   44d40:	394ab03a 	or	r5,r7,r5
   44d44:	1004c03a 	cmpne	r2,r2,zero
   44d48:	288ab03a 	or	r5,r5,r2
   44d4c:	003f5306 	br	44a9c <__alt_data_end+0xfffdd99c>
   44d50:	4448b03a 	or	r4,r8,r17
   44d54:	20003e26 	beq	r4,zero,44e50 <__adddf3+0x61c>
   44d58:	00c6303a 	nor	r3,zero,r3
   44d5c:	18003a1e 	bne	r3,zero,44e48 <__adddf3+0x614>
   44d60:	3463c83a 	sub	r17,r6,r17
   44d64:	4a07c83a 	sub	r3,r9,r8
   44d68:	344d803a 	cmpltu	r6,r6,r17
   44d6c:	1991c83a 	sub	r8,r3,r6
   44d70:	1021883a 	mov	r16,r2
   44d74:	3825883a 	mov	r18,r7
   44d78:	003f0a06 	br	449a4 <__alt_data_end+0xfffdd8a4>
   44d7c:	2023883a 	mov	r17,r4
   44d80:	003f0d06 	br	449b8 <__alt_data_end+0xfffdd8b8>
   44d84:	0081ffc4 	movi	r2,2047
   44d88:	80bf3f1e 	bne	r16,r2,44a88 <__alt_data_end+0xfffdd988>
   44d8c:	003ec806 	br	448b0 <__alt_data_end+0xfffdd7b0>
   44d90:	0005883a 	mov	r2,zero
   44d94:	003fb106 	br	44c5c <__alt_data_end+0xfffddb5c>
   44d98:	0007883a 	mov	r3,zero
   44d9c:	003fbc06 	br	44c90 <__alt_data_end+0xfffddb90>
   44da0:	4444b03a 	or	r2,r8,r17
   44da4:	8000871e 	bne	r16,zero,44fc4 <__adddf3+0x790>
   44da8:	1000ba26 	beq	r2,zero,45094 <__adddf3+0x860>
   44dac:	4984b03a 	or	r2,r9,r6
   44db0:	103ebf26 	beq	r2,zero,448b0 <__alt_data_end+0xfffdd7b0>
   44db4:	8985883a 	add	r2,r17,r6
   44db8:	4247883a 	add	r3,r8,r9
   44dbc:	1451803a 	cmpltu	r8,r2,r17
   44dc0:	40d1883a 	add	r8,r8,r3
   44dc4:	40c0202c 	andhi	r3,r8,128
   44dc8:	1023883a 	mov	r17,r2
   44dcc:	183f1a26 	beq	r3,zero,44a38 <__alt_data_end+0xfffdd938>
   44dd0:	00bfe034 	movhi	r2,65408
   44dd4:	10bfffc4 	addi	r2,r2,-1
   44dd8:	2021883a 	mov	r16,r4
   44ddc:	4090703a 	and	r8,r8,r2
   44de0:	003eb306 	br	448b0 <__alt_data_end+0xfffdd7b0>
   44de4:	4444b03a 	or	r2,r8,r17
   44de8:	8000291e 	bne	r16,zero,44e90 <__adddf3+0x65c>
   44dec:	10004b1e 	bne	r2,zero,44f1c <__adddf3+0x6e8>
   44df0:	4990b03a 	or	r8,r9,r6
   44df4:	40008b26 	beq	r8,zero,45024 <__adddf3+0x7f0>
   44df8:	4811883a 	mov	r8,r9
   44dfc:	3023883a 	mov	r17,r6
   44e00:	3825883a 	mov	r18,r7
   44e04:	003eaa06 	br	448b0 <__alt_data_end+0xfffdd7b0>
   44e08:	1021883a 	mov	r16,r2
   44e0c:	0011883a 	mov	r8,zero
   44e10:	0005883a 	mov	r2,zero
   44e14:	003f0f06 	br	44a54 <__alt_data_end+0xfffdd954>
   44e18:	217ff804 	addi	r5,r4,-32
   44e1c:	00800804 	movi	r2,32
   44e20:	494ad83a 	srl	r5,r9,r5
   44e24:	20807d26 	beq	r4,r2,4501c <__adddf3+0x7e8>
   44e28:	00801004 	movi	r2,64
   44e2c:	1109c83a 	sub	r4,r2,r4
   44e30:	4912983a 	sll	r9,r9,r4
   44e34:	498cb03a 	or	r6,r9,r6
   44e38:	300cc03a 	cmpne	r6,r6,zero
   44e3c:	298ab03a 	or	r5,r5,r6
   44e40:	0013883a 	mov	r9,zero
   44e44:	003f1506 	br	44a9c <__alt_data_end+0xfffdd99c>
   44e48:	0101ffc4 	movi	r4,2047
   44e4c:	113f9a1e 	bne	r2,r4,44cb8 <__alt_data_end+0xfffddbb8>
   44e50:	4811883a 	mov	r8,r9
   44e54:	3023883a 	mov	r17,r6
   44e58:	1021883a 	mov	r16,r2
   44e5c:	3825883a 	mov	r18,r7
   44e60:	003e9306 	br	448b0 <__alt_data_end+0xfffdd7b0>
   44e64:	8000161e 	bne	r16,zero,44ec0 <__adddf3+0x68c>
   44e68:	444ab03a 	or	r5,r8,r17
   44e6c:	28005126 	beq	r5,zero,44fb4 <__adddf3+0x780>
   44e70:	0108303a 	nor	r4,zero,r4
   44e74:	20004d1e 	bne	r4,zero,44fac <__adddf3+0x778>
   44e78:	89a3883a 	add	r17,r17,r6
   44e7c:	4253883a 	add	r9,r8,r9
   44e80:	898d803a 	cmpltu	r6,r17,r6
   44e84:	3251883a 	add	r8,r6,r9
   44e88:	1021883a 	mov	r16,r2
   44e8c:	003f0806 	br	44ab0 <__alt_data_end+0xfffdd9b0>
   44e90:	1000301e 	bne	r2,zero,44f54 <__adddf3+0x720>
   44e94:	4984b03a 	or	r2,r9,r6
   44e98:	10007126 	beq	r2,zero,45060 <__adddf3+0x82c>
   44e9c:	4811883a 	mov	r8,r9
   44ea0:	3023883a 	mov	r17,r6
   44ea4:	3825883a 	mov	r18,r7
   44ea8:	0401ffc4 	movi	r16,2047
   44eac:	003e8006 	br	448b0 <__alt_data_end+0xfffdd7b0>
   44eb0:	4462b03a 	or	r17,r8,r17
   44eb4:	8822c03a 	cmpne	r17,r17,zero
   44eb8:	0007883a 	mov	r3,zero
   44ebc:	003f8b06 	br	44cec <__alt_data_end+0xfffddbec>
   44ec0:	0141ffc4 	movi	r5,2047
   44ec4:	11403b26 	beq	r2,r5,44fb4 <__adddf3+0x780>
   44ec8:	0109c83a 	sub	r4,zero,r4
   44ecc:	42002034 	orhi	r8,r8,128
   44ed0:	01400e04 	movi	r5,56
   44ed4:	29006716 	blt	r5,r4,45074 <__adddf3+0x840>
   44ed8:	014007c4 	movi	r5,31
   44edc:	29007016 	blt	r5,r4,450a0 <__adddf3+0x86c>
   44ee0:	01400804 	movi	r5,32
   44ee4:	290bc83a 	sub	r5,r5,r4
   44ee8:	4154983a 	sll	r10,r8,r5
   44eec:	890ed83a 	srl	r7,r17,r4
   44ef0:	894a983a 	sll	r5,r17,r5
   44ef4:	4108d83a 	srl	r4,r8,r4
   44ef8:	51e2b03a 	or	r17,r10,r7
   44efc:	280ac03a 	cmpne	r5,r5,zero
   44f00:	8962b03a 	or	r17,r17,r5
   44f04:	89a3883a 	add	r17,r17,r6
   44f08:	2253883a 	add	r9,r4,r9
   44f0c:	898d803a 	cmpltu	r6,r17,r6
   44f10:	3251883a 	add	r8,r6,r9
   44f14:	1021883a 	mov	r16,r2
   44f18:	003ee506 	br	44ab0 <__alt_data_end+0xfffdd9b0>
   44f1c:	4984b03a 	or	r2,r9,r6
   44f20:	103e6326 	beq	r2,zero,448b0 <__alt_data_end+0xfffdd7b0>
   44f24:	8987c83a 	sub	r3,r17,r6
   44f28:	88c9803a 	cmpltu	r4,r17,r3
   44f2c:	4245c83a 	sub	r2,r8,r9
   44f30:	1105c83a 	sub	r2,r2,r4
   44f34:	1100202c 	andhi	r4,r2,128
   44f38:	203ebb26 	beq	r4,zero,44a28 <__alt_data_end+0xfffdd928>
   44f3c:	3463c83a 	sub	r17,r6,r17
   44f40:	4a07c83a 	sub	r3,r9,r8
   44f44:	344d803a 	cmpltu	r6,r6,r17
   44f48:	1991c83a 	sub	r8,r3,r6
   44f4c:	3825883a 	mov	r18,r7
   44f50:	003e5706 	br	448b0 <__alt_data_end+0xfffdd7b0>
   44f54:	4984b03a 	or	r2,r9,r6
   44f58:	10002e26 	beq	r2,zero,45014 <__adddf3+0x7e0>
   44f5c:	4004d0fa 	srli	r2,r8,3
   44f60:	8822d0fa 	srli	r17,r17,3
   44f64:	4010977a 	slli	r8,r8,29
   44f68:	10c0022c 	andhi	r3,r2,8
   44f6c:	4462b03a 	or	r17,r8,r17
   44f70:	18000826 	beq	r3,zero,44f94 <__adddf3+0x760>
   44f74:	4808d0fa 	srli	r4,r9,3
   44f78:	20c0022c 	andhi	r3,r4,8
   44f7c:	1800051e 	bne	r3,zero,44f94 <__adddf3+0x760>
   44f80:	300cd0fa 	srli	r6,r6,3
   44f84:	4806977a 	slli	r3,r9,29
   44f88:	2005883a 	mov	r2,r4
   44f8c:	3825883a 	mov	r18,r7
   44f90:	19a2b03a 	or	r17,r3,r6
   44f94:	8810d77a 	srli	r8,r17,29
   44f98:	100490fa 	slli	r2,r2,3
   44f9c:	882290fa 	slli	r17,r17,3
   44fa0:	0401ffc4 	movi	r16,2047
   44fa4:	4090b03a 	or	r8,r8,r2
   44fa8:	003e4106 	br	448b0 <__alt_data_end+0xfffdd7b0>
   44fac:	0141ffc4 	movi	r5,2047
   44fb0:	117fc71e 	bne	r2,r5,44ed0 <__alt_data_end+0xfffdddd0>
   44fb4:	4811883a 	mov	r8,r9
   44fb8:	3023883a 	mov	r17,r6
   44fbc:	1021883a 	mov	r16,r2
   44fc0:	003e3b06 	br	448b0 <__alt_data_end+0xfffdd7b0>
   44fc4:	10002f26 	beq	r2,zero,45084 <__adddf3+0x850>
   44fc8:	4984b03a 	or	r2,r9,r6
   44fcc:	10001126 	beq	r2,zero,45014 <__adddf3+0x7e0>
   44fd0:	4004d0fa 	srli	r2,r8,3
   44fd4:	8822d0fa 	srli	r17,r17,3
   44fd8:	4010977a 	slli	r8,r8,29
   44fdc:	10c0022c 	andhi	r3,r2,8
   44fe0:	4462b03a 	or	r17,r8,r17
   44fe4:	183feb26 	beq	r3,zero,44f94 <__alt_data_end+0xfffdde94>
   44fe8:	4808d0fa 	srli	r4,r9,3
   44fec:	20c0022c 	andhi	r3,r4,8
   44ff0:	183fe81e 	bne	r3,zero,44f94 <__alt_data_end+0xfffdde94>
   44ff4:	300cd0fa 	srli	r6,r6,3
   44ff8:	4806977a 	slli	r3,r9,29
   44ffc:	2005883a 	mov	r2,r4
   45000:	19a2b03a 	or	r17,r3,r6
   45004:	003fe306 	br	44f94 <__alt_data_end+0xfffdde94>
   45008:	0011883a 	mov	r8,zero
   4500c:	0005883a 	mov	r2,zero
   45010:	003e3f06 	br	44910 <__alt_data_end+0xfffdd810>
   45014:	0401ffc4 	movi	r16,2047
   45018:	003e2506 	br	448b0 <__alt_data_end+0xfffdd7b0>
   4501c:	0013883a 	mov	r9,zero
   45020:	003f8406 	br	44e34 <__alt_data_end+0xfffddd34>
   45024:	0005883a 	mov	r2,zero
   45028:	0007883a 	mov	r3,zero
   4502c:	003e8906 	br	44a54 <__alt_data_end+0xfffdd954>
   45030:	197ff804 	addi	r5,r3,-32
   45034:	01000804 	movi	r4,32
   45038:	414ad83a 	srl	r5,r8,r5
   4503c:	19002426 	beq	r3,r4,450d0 <__adddf3+0x89c>
   45040:	01001004 	movi	r4,64
   45044:	20c7c83a 	sub	r3,r4,r3
   45048:	40c6983a 	sll	r3,r8,r3
   4504c:	1c46b03a 	or	r3,r3,r17
   45050:	1806c03a 	cmpne	r3,r3,zero
   45054:	28e2b03a 	or	r17,r5,r3
   45058:	0007883a 	mov	r3,zero
   4505c:	003f2306 	br	44cec <__alt_data_end+0xfffddbec>
   45060:	0007883a 	mov	r3,zero
   45064:	5811883a 	mov	r8,r11
   45068:	00bfffc4 	movi	r2,-1
   4506c:	0401ffc4 	movi	r16,2047
   45070:	003e7806 	br	44a54 <__alt_data_end+0xfffdd954>
   45074:	4462b03a 	or	r17,r8,r17
   45078:	8822c03a 	cmpne	r17,r17,zero
   4507c:	0009883a 	mov	r4,zero
   45080:	003fa006 	br	44f04 <__alt_data_end+0xfffdde04>
   45084:	4811883a 	mov	r8,r9
   45088:	3023883a 	mov	r17,r6
   4508c:	0401ffc4 	movi	r16,2047
   45090:	003e0706 	br	448b0 <__alt_data_end+0xfffdd7b0>
   45094:	4811883a 	mov	r8,r9
   45098:	3023883a 	mov	r17,r6
   4509c:	003e0406 	br	448b0 <__alt_data_end+0xfffdd7b0>
   450a0:	21fff804 	addi	r7,r4,-32
   450a4:	01400804 	movi	r5,32
   450a8:	41ced83a 	srl	r7,r8,r7
   450ac:	21400a26 	beq	r4,r5,450d8 <__adddf3+0x8a4>
   450b0:	01401004 	movi	r5,64
   450b4:	2909c83a 	sub	r4,r5,r4
   450b8:	4108983a 	sll	r4,r8,r4
   450bc:	2448b03a 	or	r4,r4,r17
   450c0:	2008c03a 	cmpne	r4,r4,zero
   450c4:	3922b03a 	or	r17,r7,r4
   450c8:	0009883a 	mov	r4,zero
   450cc:	003f8d06 	br	44f04 <__alt_data_end+0xfffdde04>
   450d0:	0007883a 	mov	r3,zero
   450d4:	003fdd06 	br	4504c <__alt_data_end+0xfffddf4c>
   450d8:	0009883a 	mov	r4,zero
   450dc:	003ff706 	br	450bc <__alt_data_end+0xfffddfbc>

000450e0 <__divdf3>:
   450e0:	defff204 	addi	sp,sp,-56
   450e4:	dd400915 	stw	r21,36(sp)
   450e8:	282ad53a 	srli	r21,r5,20
   450ec:	dd000815 	stw	r20,32(sp)
   450f0:	2828d7fa 	srli	r20,r5,31
   450f4:	dc000415 	stw	r16,16(sp)
   450f8:	04000434 	movhi	r16,16
   450fc:	df000c15 	stw	fp,48(sp)
   45100:	843fffc4 	addi	r16,r16,-1
   45104:	dfc00d15 	stw	ra,52(sp)
   45108:	ddc00b15 	stw	r23,44(sp)
   4510c:	dd800a15 	stw	r22,40(sp)
   45110:	dcc00715 	stw	r19,28(sp)
   45114:	dc800615 	stw	r18,24(sp)
   45118:	dc400515 	stw	r17,20(sp)
   4511c:	ad41ffcc 	andi	r21,r21,2047
   45120:	2c20703a 	and	r16,r5,r16
   45124:	a7003fcc 	andi	fp,r20,255
   45128:	a8006126 	beq	r21,zero,452b0 <__divdf3+0x1d0>
   4512c:	0081ffc4 	movi	r2,2047
   45130:	2025883a 	mov	r18,r4
   45134:	a8803726 	beq	r21,r2,45214 <__divdf3+0x134>
   45138:	80800434 	orhi	r2,r16,16
   4513c:	100490fa 	slli	r2,r2,3
   45140:	2020d77a 	srli	r16,r4,29
   45144:	202490fa 	slli	r18,r4,3
   45148:	ad7f0044 	addi	r21,r21,-1023
   4514c:	80a0b03a 	or	r16,r16,r2
   45150:	0027883a 	mov	r19,zero
   45154:	0013883a 	mov	r9,zero
   45158:	3804d53a 	srli	r2,r7,20
   4515c:	382cd7fa 	srli	r22,r7,31
   45160:	04400434 	movhi	r17,16
   45164:	8c7fffc4 	addi	r17,r17,-1
   45168:	1081ffcc 	andi	r2,r2,2047
   4516c:	3011883a 	mov	r8,r6
   45170:	3c62703a 	and	r17,r7,r17
   45174:	b5c03fcc 	andi	r23,r22,255
   45178:	10006c26 	beq	r2,zero,4532c <__divdf3+0x24c>
   4517c:	00c1ffc4 	movi	r3,2047
   45180:	10c06426 	beq	r2,r3,45314 <__divdf3+0x234>
   45184:	88c00434 	orhi	r3,r17,16
   45188:	180690fa 	slli	r3,r3,3
   4518c:	3022d77a 	srli	r17,r6,29
   45190:	301090fa 	slli	r8,r6,3
   45194:	10bf0044 	addi	r2,r2,-1023
   45198:	88e2b03a 	or	r17,r17,r3
   4519c:	000f883a 	mov	r7,zero
   451a0:	a58cf03a 	xor	r6,r20,r22
   451a4:	3cc8b03a 	or	r4,r7,r19
   451a8:	a8abc83a 	sub	r21,r21,r2
   451ac:	008003c4 	movi	r2,15
   451b0:	3007883a 	mov	r3,r6
   451b4:	34c03fcc 	andi	r19,r6,255
   451b8:	11009036 	bltu	r2,r4,453fc <__divdf3+0x31c>
   451bc:	200890ba 	slli	r4,r4,2
   451c0:	00800134 	movhi	r2,4
   451c4:	10947504 	addi	r2,r2,20948
   451c8:	2089883a 	add	r4,r4,r2
   451cc:	20800017 	ldw	r2,0(r4)
   451d0:	1000683a 	jmp	r2
   451d4:	000453fc 	xorhi	zero,zero,4431
   451d8:	0004524c 	andi	zero,zero,4425
   451dc:	000453ec 	andhi	zero,zero,4431
   451e0:	00045240 	call	4524 <__alt_mem_onchip_memory2-0x3badc>
   451e4:	000453ec 	andhi	zero,zero,4431
   451e8:	000453c0 	call	453c <__alt_mem_onchip_memory2-0x3bac4>
   451ec:	000453ec 	andhi	zero,zero,4431
   451f0:	00045240 	call	4524 <__alt_mem_onchip_memory2-0x3badc>
   451f4:	0004524c 	andi	zero,zero,4425
   451f8:	0004524c 	andi	zero,zero,4425
   451fc:	000453c0 	call	453c <__alt_mem_onchip_memory2-0x3bac4>
   45200:	00045240 	call	4524 <__alt_mem_onchip_memory2-0x3badc>
   45204:	00045230 	cmpltui	zero,zero,4424
   45208:	00045230 	cmpltui	zero,zero,4424
   4520c:	00045230 	cmpltui	zero,zero,4424
   45210:	000456e0 	cmpeqi	zero,zero,4443
   45214:	2404b03a 	or	r2,r4,r16
   45218:	1000661e 	bne	r2,zero,453b4 <__divdf3+0x2d4>
   4521c:	04c00204 	movi	r19,8
   45220:	0021883a 	mov	r16,zero
   45224:	0025883a 	mov	r18,zero
   45228:	02400084 	movi	r9,2
   4522c:	003fca06 	br	45158 <__alt_data_end+0xfffde058>
   45230:	8023883a 	mov	r17,r16
   45234:	9011883a 	mov	r8,r18
   45238:	e02f883a 	mov	r23,fp
   4523c:	480f883a 	mov	r7,r9
   45240:	00800084 	movi	r2,2
   45244:	3881311e 	bne	r7,r2,4570c <__divdf3+0x62c>
   45248:	b827883a 	mov	r19,r23
   4524c:	98c0004c 	andi	r3,r19,1
   45250:	0081ffc4 	movi	r2,2047
   45254:	000b883a 	mov	r5,zero
   45258:	0025883a 	mov	r18,zero
   4525c:	1004953a 	slli	r2,r2,20
   45260:	18c03fcc 	andi	r3,r3,255
   45264:	04400434 	movhi	r17,16
   45268:	8c7fffc4 	addi	r17,r17,-1
   4526c:	180697fa 	slli	r3,r3,31
   45270:	2c4a703a 	and	r5,r5,r17
   45274:	288ab03a 	or	r5,r5,r2
   45278:	28c6b03a 	or	r3,r5,r3
   4527c:	9005883a 	mov	r2,r18
   45280:	dfc00d17 	ldw	ra,52(sp)
   45284:	df000c17 	ldw	fp,48(sp)
   45288:	ddc00b17 	ldw	r23,44(sp)
   4528c:	dd800a17 	ldw	r22,40(sp)
   45290:	dd400917 	ldw	r21,36(sp)
   45294:	dd000817 	ldw	r20,32(sp)
   45298:	dcc00717 	ldw	r19,28(sp)
   4529c:	dc800617 	ldw	r18,24(sp)
   452a0:	dc400517 	ldw	r17,20(sp)
   452a4:	dc000417 	ldw	r16,16(sp)
   452a8:	dec00e04 	addi	sp,sp,56
   452ac:	f800283a 	ret
   452b0:	2404b03a 	or	r2,r4,r16
   452b4:	2027883a 	mov	r19,r4
   452b8:	10003926 	beq	r2,zero,453a0 <__divdf3+0x2c0>
   452bc:	80012e26 	beq	r16,zero,45778 <__divdf3+0x698>
   452c0:	8009883a 	mov	r4,r16
   452c4:	d9800315 	stw	r6,12(sp)
   452c8:	d9c00215 	stw	r7,8(sp)
   452cc:	0046f540 	call	46f54 <__clzsi2>
   452d0:	d9800317 	ldw	r6,12(sp)
   452d4:	d9c00217 	ldw	r7,8(sp)
   452d8:	113ffd44 	addi	r4,r2,-11
   452dc:	00c00704 	movi	r3,28
   452e0:	19012116 	blt	r3,r4,45768 <__divdf3+0x688>
   452e4:	00c00744 	movi	r3,29
   452e8:	147ffe04 	addi	r17,r2,-8
   452ec:	1907c83a 	sub	r3,r3,r4
   452f0:	8460983a 	sll	r16,r16,r17
   452f4:	98c6d83a 	srl	r3,r19,r3
   452f8:	9c64983a 	sll	r18,r19,r17
   452fc:	1c20b03a 	or	r16,r3,r16
   45300:	1080fcc4 	addi	r2,r2,1011
   45304:	00abc83a 	sub	r21,zero,r2
   45308:	0027883a 	mov	r19,zero
   4530c:	0013883a 	mov	r9,zero
   45310:	003f9106 	br	45158 <__alt_data_end+0xfffde058>
   45314:	3446b03a 	or	r3,r6,r17
   45318:	18001f1e 	bne	r3,zero,45398 <__divdf3+0x2b8>
   4531c:	0023883a 	mov	r17,zero
   45320:	0011883a 	mov	r8,zero
   45324:	01c00084 	movi	r7,2
   45328:	003f9d06 	br	451a0 <__alt_data_end+0xfffde0a0>
   4532c:	3446b03a 	or	r3,r6,r17
   45330:	18001526 	beq	r3,zero,45388 <__divdf3+0x2a8>
   45334:	88011b26 	beq	r17,zero,457a4 <__divdf3+0x6c4>
   45338:	8809883a 	mov	r4,r17
   4533c:	d9800315 	stw	r6,12(sp)
   45340:	da400115 	stw	r9,4(sp)
   45344:	0046f540 	call	46f54 <__clzsi2>
   45348:	d9800317 	ldw	r6,12(sp)
   4534c:	da400117 	ldw	r9,4(sp)
   45350:	113ffd44 	addi	r4,r2,-11
   45354:	00c00704 	movi	r3,28
   45358:	19010e16 	blt	r3,r4,45794 <__divdf3+0x6b4>
   4535c:	00c00744 	movi	r3,29
   45360:	123ffe04 	addi	r8,r2,-8
   45364:	1907c83a 	sub	r3,r3,r4
   45368:	8a22983a 	sll	r17,r17,r8
   4536c:	30c6d83a 	srl	r3,r6,r3
   45370:	3210983a 	sll	r8,r6,r8
   45374:	1c62b03a 	or	r17,r3,r17
   45378:	1080fcc4 	addi	r2,r2,1011
   4537c:	0085c83a 	sub	r2,zero,r2
   45380:	000f883a 	mov	r7,zero
   45384:	003f8606 	br	451a0 <__alt_data_end+0xfffde0a0>
   45388:	0023883a 	mov	r17,zero
   4538c:	0011883a 	mov	r8,zero
   45390:	01c00044 	movi	r7,1
   45394:	003f8206 	br	451a0 <__alt_data_end+0xfffde0a0>
   45398:	01c000c4 	movi	r7,3
   4539c:	003f8006 	br	451a0 <__alt_data_end+0xfffde0a0>
   453a0:	04c00104 	movi	r19,4
   453a4:	0021883a 	mov	r16,zero
   453a8:	0025883a 	mov	r18,zero
   453ac:	02400044 	movi	r9,1
   453b0:	003f6906 	br	45158 <__alt_data_end+0xfffde058>
   453b4:	04c00304 	movi	r19,12
